ccollections
defaultdict
p0
(c__builtin__
list
p1
tp2
Rp3
S'reptile'
p4
(lp5
Vdiamondback
p6
aVdiplodocus
p7
aViguanodon
p8
aVcopperhead
p9
aVcaiman
p10
aVtaipan
p11
aVdeinonychus
p12
aVasp
p13
aVichthyosaur
p14
aVcrocodile
p15
aVpterodactyl
p16
aVcobra
p17
aVkrait
p18
aVornithopod
p19
aVgecko
p20
aVtitanosaur
p21
aVconstrictor
p22
aVsaurian
p23
aVskink
p24
aVornithischian
p25
aVviper
p26
aVridley
p27
aVdinosaur
p28
aVtriceratops
p29
aVsnake
p30
aVpterosaur
p31
aVplesiosaur
p32
aVstegosaur
p33
aVcoelophysis
p34
aVtortoise
p35
aVwhiptail
p36
aVanaconda
p37
aVlizard
p38
aVmamba
p39
aVsidewinder
p40
aVpython
p41
aVterrapin
p42
aVagama
p43
aVsauropod
p44
aVcooter
p45
aVtheropod
p46
aVvelociraptor
p47
aVtyrannosaur
p48
aVrattlesnake
p49
aVelapid
p50
aVchelonian
p51
aVichthyosaurus
p52
aVtuatara
p53
aVhadrosaur
p54
aVsaurischian
p55
aVcompsognathus
p56
asS'medication'
p57
(lp58
Vperphenazine
p59
aVfluvastatin
p60
aVgriseofulvin
p61
aVverapamil
p62
aVantimalarial
p63
aVmercaptopurine
p64
aVmebendazole
p65
aVimipramine
p66
aVisoproterenol
p67
aVchlordiazepoxide
p68
aVthiabendazole
p69
aVketorolac
p70
aVliniment
p71
aVzidovudine
p72
aVlorazepam
p73
aVnefazodone
p74
aVcefuroxime
p75
aVpenicillin
p76
aVisoniazid
p77
aVampicillin
p78
aVmefloquine
p79
aVsaquinavir
p80
aVnabumetone
p81
aVnaproxen
p82
aVmetoprolol
p83
aVhaloperidol
p84
aVtheophylline
p85
aVsuppository
p86
aVchlortetracycline
p87
aVdiazepam
p88
aVantimetabolite
p89
aVcelecoxib
p90
aVbuspirone
p91
aVlovastatin
p92
aVerythromycin
p93
aVlamivudine
p94
aVtrazodone
p95
aVamphotericin
p96
aVantiseptic
p97
aVamobarbital
p98
aVcefotaxime
p99
aVemetic
p100
aVkanamycin
p101
aVceftriaxone
p102
aVreserpine
p103
aVamoxicillin
p104
aVdoxorubicin
p105
aVtriazolam
p106
aVvaldecoxib
p107
aValoes
p108
aVpharmaceutical
p109
aVethosuximide
p110
aVmethacholine
p111
aVsedative
p112
aVcolchicine
p113
aVactinomycin
p114
aVrifampin
p115
aVastringent
p116
aVnortriptyline
p117
aVceftazidime
p118
aVgentamicin
p119
aVacyclovir
p120
aVbronchodilator
p121
aVphenolphthalein
p122
aVritonavir
p123
aVanticonvulsant
p124
aVthioridazine
p125
aVatropine
p126
aVneomycin
p127
aVprobenecid
p128
aVgemfibrozil
p129
aVbacitracin
p130
aVpravastatin
p131
aVchlorhexidine
p132
aVapomorphine
p133
aVpropoxyphene
p134
aVmetformin
p135
aVcodeine
p136
aVvancomycin
p137
aVpentazocine
p138
aVallopurinol
p139
aVnitrofurantoin
p140
aVreboxetine
p141
aVactifed
p142
aVparegoric
p143
aVgabapentin
p144
aValbuterol
p145
aVpenicillamine
p146
aVpimozide
p147
aVfentanyl
p148
aVdoxycycline
p149
aVsulfadiazine
p150
aVchloramphenicol
p151
aVcimetidine
p152
aVvermifuge
p153
aVfamotidine
p154
aVasparaginase
p155
aVdiltiazem
p156
aVatenolol
p157
aVfluoxetine
p158
aVoxazepam
p159
aVnevirapine
p160
aVmethyldopa
p161
aVointment
p162
aVacoustic
p163
aVprocarbazine
p164
aVneostigmine
p165
aVsalicylate
p166
aVisosorbide
p167
aVflurbiprofen
p168
aVpalliative
p169
aVsucralfate
p170
aVpolymyxin
p171
aVtricyclic
p172
aVfluorouracil
p173
aVacetaminophen
p174
aVthrombolytic
p175
aVcerivastatin
p176
aVdiaphoretic
p177
aVtolbutamide
p178
aVmidazolam
p179
aVthiopental
p180
aVterazosin
p181
aVfluphenazine
p182
aVenalapril
p183
aVchlorpromazine
p184
aVantispasmodic
p185
aVlincomycin
p186
aVphenelzine
p187
aVdesipramine
p188
aVdelavirdine
p189
aVatorvastatin
p190
aVflecainide
p191
aVibuprofen
p192
aVbarbiturate
p193
aVdecongestant
p194
aVanticholinesterase
p195
aVantibacterial
p196
aVdapsone
p197
aVaminophylline
p198
aVcyproheptadine
p199
aVantiemetic
p200
aVchloroquine
p201
aVsimvastatin
p202
aVaspirin
p203
aVramipril
p204
aVoxytetracycline
p205
aVetodolac
p206
aVchlorambucil
p207
aVmaleate
p208
aVranitidine
p209
aVnelfinavir
p210
aVantineoplastic
p211
aValendronate
p212
aVribavirin
p213
aVmethicillin
p214
aVazathioprine
p215
aVsulindac
p216
aVdose
p217
aVclozapine
p218
aVnitrazepam
p219
aVcephalexin
p220
aVantipyretic
p221
aVquinacrine
p222
aVclonidine
p223
aVhydroxychloroquine
p224
aVdimenhydrinate
p225
aVamitriptyline
p226
aVciprofloxacin
p227
aVquinidine
p228
aVheparin
p229
aVmelphalan
p230
aVnifedipine
p231
aVthimerosal
p232
aVpiroxicam
p233
aVantihistamine
p234
aVrubefacient
p235
aVdisulfiram
p236
aVpurgative
p237
aVtobramycin
p238
aVipecac
p239
aVdiphenhydramine
p240
aVtemazepam
p241
aVrofecoxib
p242
aVlisinopril
p243
aVimmunosuppressant
p244
aVantiarrhythmic
p245
aVradiopharmaceutical
p246
aVprochlorperazine
p247
aVantibiotic
p248
aVspironolactone
p249
aVoxytocic
p250
aVcaptopril
p251
aVthalidomide
p252
aVhydralazine
p253
aVantiviral
p254
aVanticholinergic
p255
aVprazosin
p256
aVspectinomycin
p257
aVlaxative
p258
aVmexiletine
p259
aVprednisone
p260
aVhydantoin
p261
aVantidepressant
p262
aVpiperazine
p263
aVindinavir
p264
aVmetronidazole
p265
aVantidiabetic
p266
aVchrism
p267
aVplacebo
p268
aVketoprofen
p269
aVantidiuretic
p270
aVtranquilizer
p271
aVcephalosporin
p272
aVanticoagulant
p273
aVsulfonylurea
p274
aVprednisolone
p275
aVnadolol
p276
aVchloramine
p277
aVphenylbutazone
p278
aVlomotil
p279
aVquinine
p280
aVpropanolol
p281
aVanalgesic
p282
aVmethotrexate
p283
aVisocarboxazid
p284
aVglipizide
p285
aVdexamethasone
p286
aVesmolol
p287
aVantitussive
p288
aVcarminative
p289
aVprimidone
p290
aVsertraline
p291
aVvinblastine
p292
aVdemulcent
p293
aVinterferon
p294
aVwarfarin
p295
aVpreventive
p296
aVvincristine
p297
aVarnica
p298
aValprazolam
p299
aVmithramycin
p300
aVexpectorant
p301
aVdoxazosin
p302
aVtetracycline
p303
aVamiodarone
p304
aVantidote
p305
aVdoxepin
p306
aVnystatin
p307
aVtranylcypromine
p308
aVazithromycin
p309
aVminocycline
p310
aVrefill
p311
aVantihypertensive
p312
aVbenzodiazepine
p313
aVgramicidin
p314
aVclomipramine
p315
aVephedrine
p316
aVindomethacin
p317
aVmorphine
p318
aVcarvedilol
p319
aVstreptomycin
p320
aVsudorific
p321
aVmitomycin
p322
aVpromethazine
p323
aVlabetalol
p324
aVtimolol
p325
aVantiprotozoal
p326
aVlomustine
p327
asS'antibiotic'
p328
(lp329
Vgriseofulvin
p330
aVspectinomycin
p331
aVnystatin
p332
aVamphotericin
p333
aVamoxicillin
p334
aVcephalosporin
p335
aVcefotaxime
p336
aVbacitracin
p337
aVkanamycin
p338
aVtobramycin
p339
aVceftriaxone
p340
aVvancomycin
p341
aVgentamicin
p342
aVdoxorubicin
p343
aVchlortetracycline
p344
aVdoxycycline
p345
aVlincomycin
p346
aVmithramycin
p347
aVstreptomycin
p348
aVoxytetracycline
p349
aVceftazidime
p350
aVpenicillin
p351
aVmethicillin
p352
aVpolymyxin
p353
aVgramicidin
p354
aVciprofloxacin
p355
aVmitomycin
p356
aVerythromycin
p357
aVcefuroxime
p358
aVcephalexin
p359
aVchloramphenicol
p360
aVneomycin
p361
aVampicillin
p362
aVactinomycin
p363
asS'microorganism'
p364
(lp365
Vnostoc
p366
aVmycobacteria
p367
aVprotist
p368
aVclostridium
p369
aVmicrobe
p370
aVactinomycete
p371
aVerwinia
p372
aVspirogyra
p373
aVbacillus
p374
aVvibrio
p375
aVglobigerina
p376
aVpoxvirus
p377
aVseagrass
p378
aVnoctiluca
p379
aVpicornavirus
p380
aVspirochete
p381
aVbacteriophage
p382
aVvorticella
p383
aVpneumococcus
p384
aVtetrahymena
p385
aVflavivirus
p386
aVgonococcus
p387
aVradiolarian
p388
aVrickettsia
p389
aVbladderwrack
p390
aVadenovirus
p391
aVbrucella
p392
aVleptospira
p393
aVrotavirus
p394
aVactinomyces
p395
aVviroid
p396
aVtreponema
p397
aVdinoflagellate
p398
aVflaviviridae
p399
aVdesmid
p400
aValga
p401
aVeubacteria
p402
aVeuglena
p403
aVlyssavirus
p404
aVleishmania
p405
aVechovirus
p406
aVprobiotic
p407
aVciliate
p408
aVfucus
p409
aVcytomegalovirus
p410
aVcorynebacterium
p411
aVlisteria
p412
aVgiardia
p413
aVstonewort
p414
aVsporozoite
p415
aVsalmonella
p416
aVdulse
p417
aVpoliovirus
p418
aVshigella
p419
aVdiatom
p420
aVstreptomyces
p421
aVcyanobacteria
p422
aVcostia
p423
aVpathogen
p424
aVescherichia
p425
aVpolyoma
p426
aVbacteria
p427
aVcosmid
p428
aVcoliphage
p429
aVreovirus
p430
aVrhabdovirus
p431
aVdiplococcus
p432
aVseaweed
p433
aVrhinovirus
p434
aVcoccus
p435
aVmerozoite
p436
aVkelp
p437
aVarchaebacteria
p438
aVacidophilus
p439
aVmycoplasma
p440
aVtrichomonad
p441
aVstreptococcus
p442
aVchlorella
p443
aVborrelia
p444
aVforam
p445
aVstaphylococcus
p446
aVparvovirus
p447
aVparamecium
p448
aVparamyxovirus
p449
aVarame
p450
aVameba
p451
aVflagellate
p452
aVmicroflora
p453
aVenterovirus
p454
aVvirus
p455
aVprotozoan
p456
aVwrack
p457
aVsuperbug
p458
aVtrophozoite
p459
aVretrovirus
p460
aVlactobacillus
p461
aVklebsiella
p462
asS'fish'
p463
(lp464
Vhogfish
p465
aVstingray
p466
aVthreadfin
p467
aVbullhead
p468
aVconey
p469
aVhind
p470
aVpumpkinseed
p471
aVgoldfish
p472
aVflathead
p473
aVsilversides
p474
aVwrasse
p475
aVshark
p476
aVbrill
p477
aVtriggerfish
p478
aVgoby
p479
aVporbeagle
p480
aVoarfish
p481
aVshovelhead
p482
aVescolar
p483
aVcharacin
p484
aVclingfish
p485
aVdamselfish
p486
aVplaty
p487
aVsalmonid
p488
aVfrogfish
p489
aVloach
p490
aVsturgeon
p491
aVbatfish
p492
aVangelfish
p493
aVsawfish
p494
aVminnow
p495
aVliza
p496
aVgar
p497
aVmarlin
p498
aVlungfish
p499
aVbowfin
p500
aVbonefish
p501
aVgurnard
p502
aVrabbitfish
p503
aVjawfish
p504
aVelasmobranch
p505
aVpipefish
p506
aVgroundfish
p507
aVmako
p508
aVcero
p509
aVgoatfish
p510
aVcoelacanth
p511
aVfingerling
p512
aVfilefish
p513
aVtarpon
p514
aVconger
p515
aVkillifish
p516
aVparrotfish
p517
aVleatherjacket
p518
aVburbot
p519
aVdragonet
p520
aVsurgeonfish
p521
aVremora
p522
aVsnook
p523
aVmoonfish
p524
aVsmoothhound
p525
aVbeluga
p526
aVpomfret
p527
aVguppy
p528
aVskipjack
p529
aVdace
p530
aVcodling
p531
aVmargate
p532
aVswordtail
p533
aVgrubby
p534
aVcichlid
p535
aVspearfish
p536
aVmaigre
p537
aVbarracuda
p538
aVshanny
p539
aVlargemouth
p540
aVeelpout
p541
aVlumpsucker
p542
aVtrumpetfish
p543
aVscorpionfish
p544
aVstonefish
p545
aVpogge
p546
aVopah
p547
aVmollie
p548
aVamberjack
p549
aVmoray
p550
aVargentine
p551
aVmudskipper
p552
aVtench
p553
aVlionfish
p554
aVbigeye
p555
aVboxfish
p556
aVsalmon
p557
aVscad
p558
aVbluefish
p559
aVgadoid
p560
aVcapelin
p561
aVyellowfin
p562
aVblenny
p563
aVcyprinid
p564
aVyellowtail
p565
aVchub
p566
aVbarbu
p567
aVstickleback
p568
aVsculpin
p569
aVspawner
p570
aVbluegill
p571
aVarcherfish
p572
aVtetra
p573
aVrudd
p574
aVtoadfish
p575
aVeel
p576
aVmullet
p577
aVanchovy
p578
aVhaddock
p579
aVelver
p580
aVshad
p581
aVstockfish
p582
aVsmelt
p583
aVhake
p584
aVtrout
p585
asS'canine'
p586
(lp587
Vwirehair
p588
aVpuppy
p589
aVbriard
p590
aVbeagle
p591
aVpug
p592
aVclumber
p593
aVpembroke
p594
aVnewfoundland
p595
aVretriever
p596
aVpinscher
p597
aVjackal
p598
aVaffenpinscher
p599
aVterrier
p600
aVairedale
p601
aVkeeshond
p602
aVvizsla
p603
aVdachshund
p604
aVdhole
p605
aVweimaraner
p606
aVdoberman
p607
aVfeist
p608
aVpapillon
p609
aVfoxhound
p610
aVcorgi
p611
aVbulldog
p612
aVstaghound
p613
aVredbone
p614
aVpooch
p615
aVspitz
p616
aVcollie
p617
aVreynard
p618
aVwolfhound
p619
aVbloodhound
p620
aVrottweiler
p621
aVhound
p622
aVpekinese
p623
aVwolf
p624
aVmastiff
p625
aVschipperke
p626
aVcoyote
p627
aVhyena
p628
aVpomeranian
p629
aVdog
p630
aVschnauzer
p631
aVotterhound
p632
aVmalinois
p633
aVmalamute
p634
aVbasset
p635
aVborzoi
p636
aVpoodle
p637
aVbasenji
p638
aVspaniel
p639
aVwhippet
p640
aVsaluki
p641
aVdingo
p642
aVcur
p643
aVappenzeller
p644
aVaardwolf
p645
aVhousedog
p646
aVfox
p647
aVgreyhound
p648
aVlapdog
p649
asS'tissue'
p650
(lp651
Vdiaphysis
p652
aVincus
p653
aVretina
p654
aVectoderm
p655
aVsarcolemma
p656
aVtibia
p657
aVtarsal
p658
aVcornea
p659
aVossicle
p660
aVdewlap
p661
aVethmoid
p662
aVmarrowbone
p663
aVhamstring
p664
aVgraft
p665
aVchoroid
p666
aVfacial
p667
aVpubis
p668
aVincisor
p669
aVcranium
p670
aVhypoglossal
p671
aVpericardium
p672
aVligament
p673
aVmicroglia
p674
aVcanine
p675
aVneuropil
p676
aVeyelid
p677
aVscalp
p678
aVsacrum
p679
aVjaw
p680
aVbone
p681
aVcommissure
p682
aVatheroma
p683
aVmesocolon
p684
aVconjunctiva
p685
aVramus
p686
aVfibula
p687
aVvertebra
p688
aVscapula
p689
aVarcus
p690
aVeardrum
p691
aVmesenchyme
p692
aVmons
p693
aVparenchyma
p694
aVperitoneum
p695
aVtooth
p696
aVfascia
p697
aVnerve
p698
aVmetatarsal
p699
aVsternum
p700
aVdecidua
p701
aVfishbone
p702
aVhangnail
p703
aVhipbone
p704
aVcuticle
p705
aVmetacarpal
p706
aVautograft
p707
aVpastern
p708
aVuvula
p709
aVomentum
p710
aVfemur
p711
aVprepuce
p712
aVhumerus
p713
aVpellicle
p714
aVmodiolus
p715
aVstapes
p716
aVcartilage
p717
aVflesh
p718
aVaponeurosis
p719
aVclavicle
p720
aVoculomotor
p721
aVtunic
p722
aVgingiva
p723
aVcoccyx
p724
aVpterygium
p725
aVflab
p726
aVfibrocartilage
p727
aVmanubrium
p728
aVhyoid
p729
aVperiosteum
p730
aVpremolar
p731
aVtrophoblast
p732
aVwishbone
p733
aVepithelium
p734
aVvagus
p735
aVmolar
p736
aVpatella
p737
aVcheekbone
p738
aVtrabecula
p739
aVcellulite
p740
aVmesentery
p741
aVtrigeminal
p742
aVspleen
p743
aVgranulation
p744
aVhomograft
p745
aVendocardium
p746
aVsclera
p747
aVmesoderm
p748
aVocciput
p749
aVendothelium
p750
aVendometrium
p751
aVtonsil
p752
aVbubo
p753
aVepiphysis
p754
aVepicardium
p755
aVtrochlear
p756
aVcentrum
p757
aVmeniscus
p758
aVendoderm
p759
aVintima
p760
aVmarrow
p761
aVmeninx
p762
aVtendon
p763
aVconodont
p764
aVsubmucosa
p765
aVarytenoid
p766
aVmalleus
p767
aVskin
p768
aVulna
p769
aVarachnoid
p770
aVmesothelium
p771
aVmyocardium
p772
aVphalanx
p773
aVischium
p774
aVskull
p775
aVkleenex
p776
asS'textile'
p777
(lp778
Vplush
p779
aVsilk
p780
aVbelting
p781
aVworsted
p782
aVvoile
p783
aVtarpaulin
p784
aVhaircloth
p785
aVbaize
p786
aVspandex
p787
aVhuck
p788
aVrag
p789
aVgroundsheet
p790
aVbunting
p791
aVgabardine
p792
aVcanvas
p793
aVtartan
p794
aVtulle
p795
aVsharkskin
p796
aVvelour
p797
aVgossamer
p798
aVtowel
p799
aVrayon
p800
aVlisle
p801
aVroyal
p802
aVcobweb
p803
aVsheeting
p804
aVwincey
p805
aVflannelette
p806
aVcourtelle
p807
aVdimity
p808
aVsuiting
p809
aVseersucker
p810
aVwaterproof
p811
aVsailcloth
p812
aVmoreen
p813
aVshantung
p814
aVfelt
p815
aVsateen
p816
aVcashmere
p817
aVserge
p818
aVburlap
p819
aVbroadcloth
p820
aVplacket
p821
aVmoleskin
p822
aVchallis
p823
aVmoquette
p824
aVscrim
p825
aVlinen
p826
aVstaysail
p827
aVcalico
p828
aVrusset
p829
aVchambray
p830
aVviyella
p831
aVheadsail
p832
aVpercale
p833
aVultrasuede
p834
aVvelveteen
p835
aVoilcloth
p836
aVbalbriggan
p837
aVmuslin
p838
aVmoire
p839
aVcheesecloth
p840
aVvelcro
p841
aVtammy
p842
aVbatik
p843
aVkhaki
p844
aVherringbone
p845
aVsnood
p846
aVlugsail
p847
aVchintz
p848
aVwirework
p849
aVknit
p850
aVsarcenet
p851
aVshirting
p852
aVmetallic
p853
aVspritsail
p854
aVbrocade
p855
aVboucle
p856
aVleatherette
p857
aVyoke
p858
aVhandkerchief
p859
aVgrosgrain
p860
aVjib
p861
aVtopsail
p862
aVsacking
p863
aVtopgallant
p864
aVlungi
p865
aVgeorgette
p866
aVtricot
p867
aVforesail
p868
aVorganza
p869
aVfoulard
p870
aVpaisley
p871
aVkhadi
p872
aVspinnaker
p873
aVgingham
p874
aVpique
p875
aVcambric
p876
aVnankeen
p877
aVdacron
p878
aVbib
p879
aVreseau
p880
aVmainsail
p881
aVsatin
p882
aVflannel
p883
aVbandanna
p884
aVswatch
p885
aVaertex
p886
aVmohair
p887
aVtaffeta
p888
aVvelvet
p889
aVgrogram
p890
aVlateen
p891
aVmackintosh
p892
aVgauze
p893
aVmacrame
p894
aVchiffon
p895
aVhairnet
p896
aVhomespun
p897
aVpoplin
p898
aVbuckram
p899
aVtweed
p900
aVwool
p901
aVbatiste
p902
aVfaille
p903
aVsail
p904
asS'dish'
p905
(lp906
Vporringer
p907
aVtureen
p908
aVargyll
p909
aVterrine
p910
aVomelet
p911
aVpaella
p912
aVmoussaka
p913
aVjambalaya
p914
aVoatmeal
p915
aVcasserole
p916
aVporridge
p917
aVborsch
p918
aVgruel
p919
aVpasta
p920
aVhamburger
p921
aVramekin
p922
aVhash
p923
aVtimbale
p924
aVtempura
p925
aVsamosa
p926
aVsukiyaki
p927
aVadobo
p928
aVsuccotash
p929
aVgazpacho
p930
aVcurry
p931
aVpoi
p932
aVschnitzel
p933
aVroulade
p934
aVcoquille
p935
aVsushi
p936
aVteriyaki
p937
aVcannelloni
p938
aVlasagna
p939
aVpilaf
p940
aVmeatball
p941
aVmatelote
p942
aVsandwich
p943
aVhaggis
p944
aVbarbecue
p945
aVcoleslaw
p946
aVkedgeree
p947
aVmarmite
p948
aVviand
p949
aVfricassee
p950
aVskilly
p951
aVsouffle
p952
aVbiryani
p953
aVfondue
p954
aVmulligatawny
p955
aVsauerbraten
p956
aVchili
p957
aVchowder
p958
aVbroth
p959
aVgoulash
p960
aVloblolly
p961
aVpudding
p962
aVragout
p963
aVspaghetti
p964
aVfrittata
p965
aVcheeseburger
p966
aVquesadilla
p967
aVapplesauce
p968
aVscampi
p969
aVsouvlaki
p970
aVfalafel
p971
aVbutty
p972
aVnacho
p973
aVsaute
p974
aVpottage
p975
aVcustard
p976
aVcouscous
p977
aVpizza
p978
aVconsomme
p979
aVtabbouleh
p980
aVburrito
p981
aVbisque
p982
aVgalantine
p983
aVrisotto
p984
aVsoup
p985
aVsashimi
p986
aVvichyssoise
p987
aVbouillon
p988
aVcroquette
p989
aVpatty
p990
aVbouillabaisse
p991
aVraita
p992
aVdolmas
p993
aVsalmi
p994
aVpotage
p995
aVgyro
p996
aVrissole
p997
aVkabob
p998
aVenchilada
p999
aVlutefisk
p1000
aVratatouille
p1001
aVcongee
p1002
aVsalad
p1003
aVsauerkraut
p1004
asS'clothing'
p1005
(lp1006
Vslacks
p1007
aVaccessory
p1008
aVyashmak
p1009
aVcapote
p1010
aVloungewear
p1011
aVparka
p1012
aVbabushka
p1013
aVsarong
p1014
aVsurplice
p1015
aVbritches
p1016
aVtogs
p1017
aVnightwear
p1018
aVpullover
p1019
aVworkwear
p1020
aVwig
p1021
aVovergarment
p1022
aVkepi
p1023
aVsurcoat
p1024
aVcords
p1025
aVwraparound
p1026
aVabaya
p1027
aVtabi
p1028
aVvestment
p1029
aVdhoti
p1030
aVhijab
p1031
aVuniform
p1032
aVnylons
p1033
aVtippet
p1034
aVputtee
p1035
aVunderwear
p1036
aVturban
p1037
aVstole
p1038
aVironing
p1039
aVgown
p1040
aVaba
p1041
aVchino
p1042
aVkameez
p1043
aVburberry
p1044
aVundergarment
p1045
aVsari
p1046
aVshirt
p1047
aVstocking
p1048
aVbodice
p1049
aVjodhpurs
p1050
aVcap
p1051
aVreversible
p1052
aVgymslip
p1053
aVchiton
p1054
aVstrapless
p1055
aVoilskin
p1056
aVminiskirt
p1057
aVniqab
p1058
aVneckpiece
p1059
aVflatwork
p1060
aVpinner
p1061
aVtrousseau
p1062
aVdiaper
p1063
aVpolonaise
p1064
aVtitfer
p1065
aVraglan
p1066
aVsweater
p1067
aVcorset
p1068
aVformalwear
p1069
aVbiretta
p1070
aVmaxi
p1071
aVstomacher
p1072
aVporkpie
p1073
aVtights
p1074
aVyarmulke
p1075
aVburqa
p1076
aVdeerstalker
p1077
aVfurnishing
p1078
aVsnowsuit
p1079
aVdrawers
p1080
aVleotard
p1081
aVbandoleer
p1082
aVlederhosen
p1083
aVtoga
p1084
aVsunhat
p1085
aVapron
p1086
aVkirtle
p1087
aVcostume
p1088
aVcoverall
p1089
aVheadscarf
p1090
aVsuit
p1091
aVtabard
p1092
aVizar
p1093
aVrobe
p1094
aVouterwear
p1095
aVknitwear
p1096
aVjerkin
p1097
aVtiara
p1098
aVgarment
p1099
aVtrouser
p1100
aVbiggin
p1101
aVhosiery
p1102
aVascot
p1103
aVsilks
p1104
aVhat
p1105
aVsundress
p1106
aVnecktie
p1107
aVcapuchin
p1108
aVdirndl
p1109
aVtricorn
p1110
aVtrews
p1111
aVlingerie
p1112
aVskullcap
p1113
aVcamlet
p1114
aVdress
p1115
aVchador
p1116
aVbalaclava
p1117
aVsweatshirt
p1118
aValb
p1119
aVsalwar
p1120
aVtoque
p1121
aVundies
p1122
aVbeachwear
p1123
aVneckcloth
p1124
aVsock
p1125
aVcamisole
p1126
aVcagoule
p1127
aVshawl
p1128
aVlivery
p1129
aVfrock
p1130
aVvest
p1131
aVnegligee
p1132
aVpontifical
p1133
aVgreatcoat
p1134
aVturtleneck
p1135
aVpillbox
p1136
aVcoronet
p1137
aVberet
p1138
aVsportswear
p1139
aVmitten
p1140
aVpinstripe
p1141
aVfinery
p1142
aVbaldric
p1143
aVmantua
p1144
aVunderpants
p1145
aVsunbonnet
p1146
aVtoupee
p1147
aVsunsuit
p1148
aVmask
p1149
aVrebozo
p1150
aVhairpiece
p1151
aVperiwig
p1152
aVblouse
p1153
aVbeanie
p1154
aVbriefs
p1155
aVpajama
p1156
aVpelisse
p1157
aVwrap
p1158
aVweeds
p1159
aVmantilla
p1160
aVcassock
p1161
aVglengarry
p1162
aVdoublet
p1163
aVbvd
p1164
aVbreeches
p1165
aVsurtout
p1166
aVponcho
p1167
aVchemise
p1168
aVcaftan
p1169
aVcoat
p1170
aVoverall
p1171
aVnewmarket
p1172
aVkhimar
p1173
aVpetticoat
p1174
aVmending
p1175
aVbrassiere
p1176
aVmiddy
p1177
aVpeplos
p1178
aVcardigan
p1179
aVwimple
p1180
aVoverskirt
p1181
aVkurta
p1182
aVchasuble
p1183
aVtam
p1184
aVbloomers
p1185
aVcoatee
p1186
aVdolman
p1187
aVnightgown
p1188
aVboater
p1189
aVplaysuit
p1190
aVjacket
p1191
aVraincoat
p1192
aVgrizzle
p1193
aVneckerchief
p1194
aVnightshirt
p1195
aVsinglet
p1196
aVjean
p1197
aVhaik
p1198
aVsackcloth
p1199
aVmuff
p1200
aVregimentals
p1201
aVneckwear
p1202
aVattire
p1203
aVswimsuit
p1204
aVfedora
p1205
aVkilt
p1206
aVbonnet
p1207
aVspacesuit
p1208
aVscarf
p1209
aVkerchief
p1210
aVtopknot
p1211
aVmaillot
p1212
aVapparel
p1213
aVheaddress
p1214
aVpantyhose
p1215
aVblazer
p1216
aVkimono
p1217
aVcravat
p1218
aVlaundry
p1219
aVfootwear
p1220
aVbathrobe
p1221
asS'transport'
p1222
(lp1223
Vforklift
p1224
aVdoodlebug
p1225
aVbumboat
p1226
aVstagecoach
p1227
aVbogy
p1228
aVbrougham
p1229
aVbrig
p1230
aVbookmobile
p1231
aVtrimaran
p1232
aVbuggy
p1233
aVsubmarine
p1234
aVsulky
p1235
aVhouseboat
p1236
aVpullman
p1237
aVjeep
p1238
aVsupertanker
p1239
aVstanhope
p1240
aVinterceptor
p1241
aVwhaleboat
p1242
aVskyhook
p1243
aVremise
p1244
aVtrolleybus
p1245
aVlifeboat
p1246
aVtramway
p1247
aVbus
p1248
aVpanzer
p1249
aVboneshaker
p1250
aVdhow
p1251
aVchairlift
p1252
aVboat
p1253
aVhansom
p1254
aVdolly
p1255
aVsnowplow
p1256
aVlightship
p1257
aVknockabout
p1258
aVtruck
p1259
aVairliner
p1260
aVtugboat
p1261
aVlocal
p1262
aVoxcart
p1263
aVairplane
p1264
aVsloop
p1265
aVmotorboat
p1266
aVhardtop
p1267
aVpantechnicon
p1268
aVhearse
p1269
aVshowboat
p1270
aVtrireme
p1271
aVgunboat
p1272
aVbobsled
p1273
aVbarouche
p1274
aVaircraft
p1275
aVlimousine
p1276
aVjetliner
p1277
aVyacht
p1278
aVspacecraft
p1279
aVfelucca
p1280
aVstreetcar
p1281
aVtank
p1282
aVdestroyer
p1283
aVsteamboat
p1284
aVcommuter
p1285
aVclarence
p1286
aVbicycle
p1287
aVconvertible
p1288
aVkayak
p1289
aVskateboard
p1290
aVfloatplane
p1291
aVtramcar
p1292
aVstreamliner
p1293
aVicebreaker
p1294
aVkamikaze
p1295
aVamphibian
p1296
aVcanoe
p1297
aVfrigate
p1298
aVwagon
p1299
aVtroopship
p1300
aVgalleon
p1301
aVminivan
p1302
aVcorvette
p1303
aVtumbrel
p1304
aVdray
p1305
aVlaunch
p1306
aVcar
p1307
aVsedan
p1308
aVhorsebox
p1309
aVcoracle
p1310
aVambulance
p1311
aVgig
p1312
aVbareboat
p1313
aVcart
p1314
aVpontoon
p1315
aVstockcar
p1316
aVlugger
p1317
aVwarplane
p1318
aVmotorcycle
p1319
aVminicab
p1320
aVseaplane
p1321
aVwherry
p1322
aVferry
p1323
aVairship
p1324
aVbarge
p1325
aVwarship
p1326
aVcockleshell
p1327
aVcruiser
p1328
aVsled
p1329
aVminelayer
p1330
aVpung
p1331
aVbulldozer
p1332
aVlorry
p1333
aVpalanquin
p1334
aVsternwheeler
p1335
aVjet
p1336
aVpickup
p1337
aVdinky
p1338
aVdreadnought
p1339
aVroadster
p1340
aVmoped
p1341
aVvelocipede
p1342
aVglider
p1343
aVairbus
p1344
aVunicycle
p1345
aVsubcompact
p1346
aVcoupe
p1347
aVscow
p1348
aVtechnical
p1349
aVhatchback
p1350
aVspeedboat
p1351
aVcarrack
p1352
aVexocet
p1353
aVhackney
p1354
aVmonoplane
p1355
aVhelicopter
p1356
aVcatamaran
p1357
aVrocket
p1358
aVelectric
p1359
aVkeelboat
p1360
aVbrigantine
p1361
aVbattleship
p1362
aVbiplane
p1363
aVyawl
p1364
aVsnowmobile
p1365
aVpedicab
p1366
aVsailboat
p1367
aVtractor
p1368
aVluge
p1369
aVtransporter
p1370
aVboxcar
p1371
aVtroika
p1372
aVhandcart
p1373
aVstarship
p1374
aVhumvee
p1375
aVskiff
p1376
aVfireboat
p1377
aVtrain
p1378
aVvehicle
p1379
aVhovercraft
p1380
aVbomber
p1381
aVminicar
p1382
aVsampan
p1383
aVshrimper
p1384
aVshipwreck
p1385
aVwindjammer
p1386
aVtricycle
p1387
aVdredger
p1388
aVlongboat
p1389
aVminibus
p1390
aVdinghy
p1391
aVship
p1392
aVlimber
p1393
aVtwinjet
p1394
aVgalley
p1395
aVchariot
p1396
aVketch
p1397
aVminesweeper
p1398
aVironclad
p1399
aVminibike
p1400
aVlocomotive
p1401
aVautogiro
p1402
aVnautilus
p1403
aVmailboat
p1404
aVgurney
p1405
aVmissile
p1406
aVtoboggan
p1407
aVdogsled
p1408
aVshunter
p1409
aVindiaman
p1410
aVballoon
p1411
aVcartage
p1412
aVhauling
p1413
aVteleportation
p1414
aVcarry
p1415
aVairdrop
p1416
aVdelivery
p1417
aVrelay
p1418
aVtransshipment
p1419
aVairlift
p1420
aVpiggyback
p1421
aVresettlement
p1422
asS'subject'
p1423
(lp1424
Vpuzzle
p1425
aVrebus
p1426
aVkeynote
p1427
aVsudoku
p1428
aVkoan
p1429
aVriddle
p1430
aVpharmacology
p1431
aVforestry
p1432
aVimmunopathology
p1433
aVichthyology
p1434
aVsurgery
p1435
aVrobotics
p1436
aVbioremediation
p1437
aVspiccato
p1438
aVposology
p1439
aVchemistry
p1440
aVheroine
p1441
aVphotochemistry
p1442
aVosteology
p1443
aVbiophysics
p1444
aVcytology
p1445
aVbacteriology
p1446
aVpathology
p1447
aVecclesiology
p1448
aVhula
p1449
aVophthalmology
p1450
aVgynecology
p1451
aVhistology
p1452
aVminuet
p1453
aVgeopolitics
p1454
aVnanotechnology
p1455
aVimmunology
p1456
aVreenactment
p1457
aVmechanics
p1458
aVpaleoecology
p1459
aVgeriatrics
p1460
aVcakewalk
p1461
aVangiology
p1462
aVpoetics
p1463
aVphycology
p1464
aVhydrography
p1465
aVquadratics
p1466
aVmineralogy
p1467
aVgeology
p1468
aVmetaphysics
p1469
aVcrystallography
p1470
aVneurobiology
p1471
aVonomastics
p1472
aVtheodicy
p1473
aVgrammar
p1474
aVsinology
p1475
aVpsychometry
p1476
aVmicroeconomics
p1477
aVclassicism
p1478
aVdecomposition
p1479
aVclassics
p1480
aVneonatology
p1481
aVbiochemistry
p1482
aVcryogenics
p1483
aVaxiology
p1484
aVethnology
p1485
aVembryology
p1486
aVelectrostatics
p1487
aVtriangulation
p1488
aVfemtochemistry
p1489
aVrheumatology
p1490
aVethology
p1491
aVtribology
p1492
aVpanto
p1493
aVcancan
p1494
aVentomology
p1495
aVmacroeconomics
p1496
aVsociology
p1497
aVstratigraphy
p1498
aVpsychopharmacology
p1499
aVendodontics
p1500
aVmetrology
p1501
aVallergology
p1502
aVscience
p1503
aVgeodesy
p1504
aVgavotte
p1505
aVpsephology
p1506
aVphonetics
p1507
aVavionics
p1508
aVneurology
p1509
aVelectrochemistry
p1510
aVritualism
p1511
aVlimnology
p1512
aVneurolinguistics
p1513
aVcosmography
p1514
aVperinatology
p1515
aVcraniology
p1516
aVspeleology
p1517
aVrocketry
p1518
aVbiogeography
p1519
aVangelology
p1520
aVcourante
p1521
aVlongways
p1522
aVmethodology
p1523
aVpsychotherapy
p1524
aVskit
p1525
aVhydrodynamics
p1526
aVtrigonometry
p1527
aVproteomics
p1528
aVpneumatics
p1529
aVdeixis
p1530
aVmambo
p1531
aVescapology
p1532
aVbionics
p1533
aVphrenology
p1534
aVtheology
p1535
aVastrodynamics
p1536
aVneuropsychiatry
p1537
aVcryptanalysis
p1538
aVgeography
p1539
aVphysics
p1540
aVcryonics
p1541
aVneoclassicism
p1542
aVkinematics
p1543
aVmusicology
p1544
aVaesthetics
p1545
aVballet
p1546
aVfandango
p1547
aVhydrostatics
p1548
aVdialectic
p1549
aVimmunochemistry
p1550
aVastrometry
p1551
aVoncology
p1552
aVassyriology
p1553
aVbiomedicine
p1554
aVcriminology
p1555
aVpsalmody
p1556
aVgastroenterology
p1557
aVmicrobiology
p1558
aVmedicine
p1559
aVdemography
p1560
aVtoxicology
p1561
aVradiology
p1562
aVgeometry
p1563
aVcivics
p1564
aVperiodontics
p1565
aVpharmacogenetics
p1566
aVcommunications
p1567
aVkaraoke
p1568
aVarchitectonics
p1569
aVstatistics
p1570
aVdermatology
p1571
aVpodiatry
p1572
aVnephrology
p1573
aVdentistry
p1574
aVotology
p1575
aVoccultism
p1576
aVrealpolitik
p1577
aVheroics
p1578
aVtango
p1579
aVdietetics
p1580
aVology
p1581
aVthermochemistry
p1582
aVdialectology
p1583
aVurology
p1584
aVstatics
p1585
aVtranscendentalism
p1586
aVeconomics
p1587
aVeugenics
p1588
aVoccidentalism
p1589
aViconology
p1590
aVvolcanology
p1591
aVlinguistics
p1592
aVthermodynamics
p1593
aVplaying
p1594
aVcladistics
p1595
aVastrophysics
p1596
aVnumerology
p1597
aVscat
p1598
aVpenology
p1599
aVpharmacokinetics
p1600
aVoptics
p1601
aVpaleontology
p1602
aVsemantics
p1603
aVprimatology
p1604
aVarcheology
p1605
aVpragmatics
p1606
aVsingalong
p1607
aVtopology
p1608
aVanthropology
p1609
aVsilviculture
p1610
aVepidemiology
p1611
aVtherapeutics
p1612
aVhemodynamics
p1613
aVfuturology
p1614
aVjitterbug
p1615
aVgenetics
p1616
aVmetamathematics
p1617
aVteratology
p1618
aVprosthodontics
p1619
aVpharmacy
p1620
aVharmonics
p1621
aVphysiology
p1622
aVpaleopathology
p1623
aVproxemics
p1624
aVbiotechnology
p1625
aVsymbology
p1626
aVpetrology
p1627
aVeschatology
p1628
aVmammalogy
p1629
aVbioethics
p1630
aVmetallurgy
p1631
aVphonology
p1632
aVornithology
p1633
aVreflexology
p1634
aVpediatrics
p1635
aVsociometry
p1636
aVcryobiology
p1637
aVgraphology
p1638
aVlindy
p1639
aVlogic
p1640
aVconchology
p1641
aVanesthesiology
p1642
aVanatomy
p1643
aVepigraphy
p1644
aVmorphology
p1645
aValgebra
p1646
aVneuroscience
p1647
aVelectronics
p1648
aVneuroanatomy
p1649
aVpsychology
p1650
aVhermeneutics
p1651
aVendocrinology
p1652
aVarithmetic
p1653
aVpaleography
p1654
aVlancers
p1655
aVhomiletics
p1656
aVclimatology
p1657
aVgeophysics
p1658
aVtrivium
p1659
aVfarandole
p1660
aVorientalism
p1661
aVstructuralism
p1662
aVprobabilism
p1663
aVquadrivium
p1664
aVprotozoology
p1665
aVkinesiology
p1666
aVexobiology
p1667
aVsociolinguistics
p1668
aVorthodontics
p1669
aVneuroethics
p1670
aVholography
p1671
aVmacrobiotics
p1672
aVjurisprudence
p1673
aVastronomy
p1674
aVcardiology
p1675
aVvirology
p1676
aVpaleoanthropology
p1677
aVpsychiatry
p1678
aVbehaviorism
p1679
aVphytochemistry
p1680
aVaeronautics
p1681
aVcytogenetics
p1682
aVradiochemistry
p1683
aVethnography
p1684
aVegyptology
p1685
aVeconometrics
p1686
aVserology
p1687
aVcantillation
p1688
aVepistemology
p1689
aVyodeling
p1690
aVdancing
p1691
aVroleplaying
p1692
aVmycology
p1693
aVoceanography
p1694
aVhornpipe
p1695
aVneurophysiology
p1696
aVtelerobotics
p1697
aVaudiology
p1698
aVacting
p1699
aVsinging
p1700
aVlexicology
p1701
aVnosology
p1702
aVmagnetohydrodynamics
p1703
aVbiometrics
p1704
aVpaleoclimatology
p1705
aVtraumatology
p1706
aVdynamics
p1707
aVcybernetics
p1708
aVbiosystematics
p1709
aVagronomy
p1710
aVmathematics
p1711
aVsystematics
p1712
aVmicroelectronics
p1713
aVhydrology
p1714
aVsociobiology
p1715
aVenzymology
p1716
aVherpetology
p1717
aVrheology
p1718
aVstrategics
p1719
aVapologetics
p1720
aVpaleobiology
p1721
aVbiology
p1722
aVseismology
p1723
aVobstetrics
p1724
aVtheogony
p1725
aVgeochemistry
p1726
aVmicropaleontology
p1727
aVprotohistory
p1728
aVradiobiology
p1729
aVstomp
p1730
aVhamming
p1731
aVsashay
p1732
aVorthopedics
p1733
aVcosmology
p1734
aVprosthetics
p1735
aVgenomics
p1736
aVanimatronics
p1737
aVallometry
p1738
aVhematology
p1739
aVacoustics
p1740
aVmalacology
p1741
aVpsychophysics
p1742
aVimpasto
p1743
aVpsycholinguistics
p1744
aVtactics
p1745
aVremit
p1746
aVrepatriate
p1747
aVvoter
p1748
aVfreeman
p1749
aVcitizen
p1750
aVcountryman
p1751
aVcompatriot
p1752
aVfreedman
p1753
aVpatriot
p1754
aVcivilian
p1755
asS'chemical'
p1756
(lp1757
Vbenzene
p1758
aVoleoresin
p1759
aVmeltwater
p1760
aVferricyanide
p1761
aVjaggery
p1762
aVbichromate
p1763
aVagglutinin
p1764
aVmalathion
p1765
aVlecithin
p1766
aVcreosote
p1767
aVfibrin
p1768
aVpentose
p1769
aVspray
p1770
aVhexane
p1771
aVmenthol
p1772
aVlimewater
p1773
aVbeeswax
p1774
aVhistidine
p1775
aVoil
p1776
aVtartrate
p1777
aVguaiacum
p1778
aVisoleucine
p1779
aVyellowcake
p1780
aVdepilatory
p1781
aVphenol
p1782
aVpectin
p1783
aVatropine
p1784
aVfluorocarbon
p1785
aVcresol
p1786
aVpolymerase
p1787
aVlysine
p1788
aVperchlorate
p1789
aVpilocarpine
p1790
aVmelamine
p1791
aVdishwater
p1792
aVdynamite
p1793
aVdioxide
p1794
aVintermediate
p1795
aVtransferase
p1796
aVlucite
p1797
aVlipoprotein
p1798
aVsilex
p1799
aVprothrombin
p1800
aVdisaccharide
p1801
aVgrease
p1802
aVbicarbonate
p1803
aVsalt
p1804
aVorganophosphate
p1805
aVglucoside
p1806
aVlycopene
p1807
aVexotherm
p1808
aVzeolite
p1809
aVcaspase
p1810
aVnapalm
p1811
aVhydride
p1812
aValbumin
p1813
aVglyceraldehyde
p1814
aVsimazine
p1815
aVamine
p1816
aVadenosine
p1817
aVmonoxide
p1818
aVkauri
p1819
aVbalm
p1820
aVtaurine
p1821
aVfulminate
p1822
aVhalide
p1823
aVlipid
p1824
aVbilge
p1825
aVrestrainer
p1826
aVpentoxide
p1827
aVantitoxin
p1828
aVfumigant
p1829
aVaspirin
p1830
aVfraction
p1831
aVglobin
p1832
aVsoftener
p1833
aVacceptor
p1834
aVornithine
p1835
aVergotamine
p1836
aVmanure
p1837
aVexon
p1838
aVtyrosine
p1839
aVheptane
p1840
aVtallow
p1841
aVphosphoprotein
p1842
aVhydrocarbon
p1843
aVgelatin
p1844
aVtriazine
p1845
aVmuton
p1846
aValdose
p1847
aVcornstarch
p1848
aVpyrimidine
p1849
aVcitrulline
p1850
aVlimonene
p1851
aVbonemeal
p1852
aVimide
p1853
aVketose
p1854
aVoctane
p1855
aVperoxidase
p1856
aVgunpowder
p1857
aVsquib
p1858
aVsulfate
p1859
aVprovitamin
p1860
aVstrychnine
p1861
aVnuclease
p1862
aVnaphthalene
p1863
aVpepsin
p1864
aVthyroglobulin
p1865
aVazide
p1866
aVflavonoid
p1867
aVnucleoprotein
p1868
aVinulin
p1869
aVsilicone
p1870
aVmastic
p1871
aVkinase
p1872
aVpetroleum
p1873
aVspermaceti
p1874
aVrennet
p1875
aVparaquat
p1876
aVsulfide
p1877
aVphosphine
p1878
aVmonosaccharide
p1879
aVprotein
p1880
aVlipase
p1881
aVbuna
p1882
aVacid
p1883
aVtrypsin
p1884
aVacetylene
p1885
aVtransferrin
p1886
aVtophus
p1887
aVnitroglycerin
p1888
aVseawater
p1889
aVkerosene
p1890
aVtrypsinogen
p1891
aVepoxy
p1892
aVcarotenoid
p1893
aVephedrine
p1894
aVsilicide
p1895
aVcatalase
p1896
aVester
p1897
aVpesticide
p1898
aVgasoline
p1899
aVpolyurethane
p1900
aVmarbling
p1901
aVchloroform
p1902
aVhyaluronidase
p1903
aVethylene
p1904
aVslush
p1905
aVdopa
p1906
aVcytokine
p1907
aVcamphor
p1908
aVsoap
p1909
aVguanine
p1910
aVglyceride
p1911
aVfluoride
p1912
aValdehyde
p1913
aVguano
p1914
aVparathion
p1915
aVestrone
p1916
aVphosphatase
p1917
aVacetate
p1918
aVcasein
p1919
aVprotease
p1920
aVtrichloroethylene
p1921
aVenol
p1922
aVbitartrate
p1923
aVcholesterol
p1924
aVtungstate
p1925
aVmonohydrate
p1926
aVpyrophosphate
p1927
aVdigitalis
p1928
aVbdellium
p1929
aVpolyethylene
p1930
aVtriose
p1931
aVgalactose
p1932
aVcystine
p1933
aVtelluride
p1934
aVcongener
p1935
aVexonuclease
p1936
aVlaetrile
p1937
aVflavin
p1938
aVheulandite
p1939
aVbactericide
p1940
aVinterleukin
p1941
aVlard
p1942
aVnoradrenaline
p1943
aVcolophony
p1944
aVhydroxide
p1945
aVammonium
p1946
aVcoagulase
p1947
aVlansoprazole
p1948
aVnicotine
p1949
aVcholinesterase
p1950
aVorganic
p1951
aVchlorofluorocarbon
p1952
aVenantiomorph
p1953
aVcitrate
p1954
aVstyrofoam
p1955
aVarginine
p1956
aVsilicate
p1957
aVthiocyanate
p1958
aVlactalbumin
p1959
aVflint
p1960
aVmaltose
p1961
aVdentifrice
p1962
aVphytochemical
p1963
aVsalicylate
p1964
aValkene
p1965
aVketone
p1966
aVrotenone
p1967
aVfurfural
p1968
aVvitriol
p1969
aVstarch
p1970
aVbutadiene
p1971
aVdigoxin
p1972
aVcyclooxygenase
p1973
aVgunflint
p1974
aVhistamine
p1975
aVthymine
p1976
aVchlorpyrifos
p1977
aVpotash
p1978
aVallomorph
p1979
aVresorcinol
p1980
aVphenothiazine
p1981
aVthreonine
p1982
aVchitin
p1983
aVpolysaccharide
p1984
aVcaustic
p1985
aVphosphocreatine
p1986
aVhydrolysate
p1987
aVbagasse
p1988
aVtelomerase
p1989
aVcortisone
p1990
aVhexose
p1991
aVarrowroot
p1992
aVpolystyrene
p1993
aVoperon
p1994
aVdripstone
p1995
aVmethionine
p1996
aVsuperoxide
p1997
aVcaffeine
p1998
aVdichloride
p1999
aVchlorpromazine
p2000
aVtnt
p2001
aVpseudoephedrine
p2002
aVpolyamide
p2003
aVheparin
p2004
aVnitrate
p2005
aVwarhead
p2006
aVinsecticide
p2007
aVgasohol
p2008
aVpermanganate
p2009
aVcopaiba
p2010
aVleucine
p2011
aVsulfonate
p2012
aVnitrofuran
p2013
aVbutterfat
p2014
aVisomer
p2015
aVbuffer
p2016
aVincense
p2017
aVphysostigmine
p2018
aVhydrate
p2019
aVlindane
p2020
aVcarbide
p2021
aVphospholipid
p2022
aVherbicide
p2023
aVbenzoin
p2024
aVstorax
p2025
aVfructose
p2026
aVtetroxide
p2027
aVcytosine
p2028
aVantivenin
p2029
aVsilica
p2030
aVvaline
p2031
aVdammar
p2032
aVformulation
p2033
aVpolyphosphate
p2034
aVglucose
p2035
aVlemongrass
p2036
aVhydroxyproline
p2037
aVoxidoreductase
p2038
aVfilaggrin
p2039
aVtrichloride
p2040
aVlactose
p2041
aVtolu
p2042
aVcatechin
p2043
aVthromboplastin
p2044
aVmucoid
p2045
aVpepsinogen
p2046
aVpreservative
p2047
aVpeptone
p2048
aVhalon
p2049
aVlymphokine
p2050
aVsterol
p2051
aVnylon
p2052
aVfirestone
p2053
aVmacromolecule
p2054
aVwater
p2055
aVdextrin
p2056
aVxanthine
p2057
aVlactase
p2058
aValuminate
p2059
aVmonomer
p2060
aVnitride
p2061
aVacetylcholine
p2062
aVpyrites
p2063
aVfirework
p2064
aVintron
p2065
aVoligosaccharide
p2066
aVcollagenase
p2067
aVtransaminase
p2068
aVrust
p2069
aVchert
p2070
aVborate
p2071
aVsiloxane
p2072
aVproteome
p2073
aVneoprene
p2074
aVacetaldehyde
p2075
aVmyoglobin
p2076
aVepisome
p2077
aVanhydride
p2078
aVribonuclease
p2079
aValar
p2080
aVplasmin
p2081
aVcysteine
p2082
aVgelignite
p2083
aVfuran
p2084
aVcerumen
p2085
aVchloride
p2086
aVcollagen
p2087
aVarum
p2088
aVdemerara
p2089
aVcondensate
p2090
aVglycine
p2091
aVnaphtha
p2092
aVinfliximab
p2093
aVdubbin
p2094
aVbutane
p2095
aVactomyosin
p2096
aVepinephrine
p2097
aVgypsum
p2098
aVpapain
p2099
aVformaldehyde
p2100
aVplexiglas
p2101
aVfiltrate
p2102
aVmyosin
p2103
aVphosphor
p2104
aVurate
p2105
aVenzyme
p2106
aVurease
p2107
aVplasticine
p2108
aVquassia
p2109
aVcassava
p2110
aVlysol
p2111
aVpolypeptide
p2112
aVscabicide
p2113
aVmyrrh
p2114
aVcalomel
p2115
aVaniline
p2116
aVresin
p2117
aVlye
p2118
aVrepellent
p2119
aVsolvate
p2120
aVadenine
p2121
aVserine
p2122
aVisocyanate
p2123
aVtransposon
p2124
aVbromide
p2125
aVglobulin
p2126
aVpolyester
p2127
aVstreptokinase
p2128
aVfreon
p2129
aVfertilizer
p2130
aVoxime
p2131
aVtannin
p2132
aVchlorobenzene
p2133
aVcarbonate
p2134
aVrenin
p2135
aVmaleate
p2136
aVpolymer
p2137
aVhistone
p2138
aVendonuclease
p2139
aVglycogen
p2140
aVlarvicide
p2141
aVricin
p2142
aVchlorate
p2143
aVindene
p2144
aVacetal
p2145
aVpyrene
p2146
aValkyd
p2147
aVacrylamide
p2148
aVpercolate
p2149
aVamylase
p2150
aVadduct
p2151
aVarsenic
p2152
aVreactant
p2153
aValum
p2154
aVfixative
p2155
aVribose
p2156
aVelemi
p2157
aVmucopolysaccharide
p2158
aViodoform
p2159
aVnitrogenase
p2160
aVtoluene
p2161
aVbenzoate
p2162
aVdiamine
p2163
aVlanolin
p2164
aVattar
p2165
aVoxygenase
p2166
aVkeratin
p2167
aVsago
p2168
aVmonoamine
p2169
aVgesso
p2170
aVcofactor
p2171
aVpyrethrum
p2172
aVarsenate
p2173
aVspice
p2174
aVmucin
p2175
aVatrazine
p2176
aVuracil
p2177
aVdioxin
p2178
aVneurotransmitter
p2179
aVhemoglobin
p2180
aVcopolymer
p2181
aVchabazite
p2182
aVblubber
p2183
aVtyramine
p2184
aValdol
p2185
aVlysozyme
p2186
aVurethane
p2187
aVpyridine
p2188
aVhaptoglobin
p2189
aVenkephalin
p2190
aVnucleoside
p2191
aVendorphin
p2192
aVdopamine
p2193
aVturpentine
p2194
aVflintstone
p2195
aVerythropoietin
p2196
aVgamboge
p2197
aVdimer
p2198
aVethane
p2199
aVcellulose
p2200
aVtriglyceride
p2201
aVdeoxyribose
p2202
aVproline
p2203
aVarsenical
p2204
aVnitrobenzene
p2205
aVgluten
p2206
aVtetrachloride
p2207
aVcorrosive
p2208
aValanine
p2209
aVexplosive
p2210
aVcarbonyl
p2211
aVmethane
p2212
aVhalocarbon
p2213
aVbetaine
p2214
aVpurine
p2215
aVthrombin
p2216
aVdecarboxylase
p2217
aVterpene
p2218
aVsaponin
p2219
aVmyelin
p2220
aVcreatine
p2221
aVphosphate
p2222
aVelastase
p2223
aVvanillin
p2224
aVsteroid
p2225
aVstyrene
p2226
aVprovirus
p2227
aVergosterol
p2228
aVacaricide
p2229
aVcopal
p2230
aVparaffin
p2231
aVopsin
p2232
aVplasticizer
p2233
aVantibody
p2234
aVputrescine
p2235
aVactin
p2236
aVthymol
p2237
aVdextrose
p2238
aVtrioxide
p2239
aVquinone
p2240
aVscopolamine
p2241
aVoxide
p2242
aVinosine
p2243
aVinvertase
p2244
aVglucosamine
p2245
aVisomerase
p2246
aVcementite
p2247
aVshortening
p2248
aVsucrose
p2249
aVborosilicate
p2250
aVsecretase
p2251
aVshampoo
p2252
aVchelate
p2253
aVnitrile
p2254
aVfat
p2255
aVhydrochloride
p2256
aVvanadate
p2257
aVnucleotide
p2258
aVamide
p2259
aVoxidase
p2260
aVurea
p2261
aVbitumen
p2262
aVubiquinone
p2263
aVflavone
p2264
aVcarbamate
p2265
aVwax
p2266
aVstabilizer
p2267
aVneurochemical
p2268
aVtranscriptase
p2269
aVtrimer
p2270
aVhalite
p2271
aVhypochlorite
p2272
aVamygdalin
p2273
aValkaloid
p2274
aVnebula
p2275
aVchromate
p2276
aVacetone
p2277
aVautoantibody
p2278
aVhypo
p2279
aVzeaxanthin
p2280
aVpetrochemical
p2281
aVimidazole
p2282
aVferritin
p2283
aVglutamate
p2284
aVphenylalanine
p2285
aVelastin
p2286
aVcordite
p2287
aVlectin
p2288
aVprotamine
p2289
aVfirecracker
p2290
aVamyloid
p2291
aVsynthetic
p2292
aVdefoliant
p2293
aVoxalate
p2294
aVasparagine
p2295
aVglutamine
p2296
aVfibrinogen
p2297
aVplasminogen
p2298
aVcutch
p2299
aVimmunoglobulin
p2300
aVtryptophan
p2301
aVcarbohydrate
p2302
aVarsenide
p2303
aVreductase
p2304
aVlactate
p2305
aVsuet
p2306
aVglycoprotein
p2307
aVcytochrome
p2308
aValabaster
p2309
aVpeptide
p2310
aVlignin
p2311
aViodide
p2312
aVlinalool
p2313
aVpropylthiouracil
p2314
aVstripper
p2315
aVtoothpaste
p2316
aVserotonin
p2317
aVglycoside
p2318
asS'flower'
p2319
(lp2320
Vsnapdragon
p2321
aVrosita
p2322
aVvanilla
p2323
aVmayweed
p2324
aVoncidium
p2325
aVportulaca
p2326
aVpoppy
p2327
aVpetunia
p2328
aVsilene
p2329
aVbegonia
p2330
aVstreptocarpus
p2331
aVvanda
p2332
aVconeflower
p2333
aVcyclamen
p2334
aVdelphinium
p2335
aVcommelina
p2336
aVnigella
p2337
aVcalceolaria
p2338
aVcentaury
p2339
aVverbena
p2340
aVodontoglossum
p2341
aVbloomer
p2342
aVcarnation
p2343
aVveronica
p2344
aVlarkspur
p2345
aVsandwort
p2346
aVcandytuft
p2347
aVorchid
p2348
aVcolumbine
p2349
aVspathiphyllum
p2350
aVwallflower
p2351
aVscabious
p2352
aVcattleya
p2353
aVlychnis
p2354
aVtansy
p2355
aVeverlasting
p2356
aVtwayblade
p2357
aVtuberose
p2358
aVcineraria
p2359
aVcudweed
p2360
aVmarigold
p2361
aVdendrobium
p2362
aVtoadflax
p2363
aVzinnia
p2364
aVliparis
p2365
aVsunflower
p2366
aVimmortelle
p2367
aVpeony
p2368
aVgentian
p2369
aVsoapwort
p2370
aVanemone
p2371
aVgazania
p2372
aVcorydalis
p2373
aVcalendula
p2374
aVdahlia
p2375
aVdaisy
p2376
aVlaelia
p2377
aVarethusa
p2378
aVaster
p2379
aVdisa
p2380
aVgoldilocks
p2381
aVorchis
p2382
aVvalerian
p2383
aVcalypso
p2384
aVbud
p2385
aVraceme
p2386
aVcatkin
p2387
aVcorymb
p2388
aVchrysanthemum
p2389
aVumbel
p2390
aVcyme
p2391
aVpanicle
p2392
aVfloret
p2393
aVrosebud
p2394
asS'tools'
p2395
(lp2396
Vdibble
p2397
aVstraightedge
p2398
aVpocketknife
p2399
aVsawmill
p2400
aVscythe
p2401
aVsecateurs
p2402
aVsandblaster
p2403
aVhacksaw
p2404
aVburin
p2405
aVdrill
p2406
aVripsaw
p2407
aVgraver
p2408
aVhayfork
p2409
aVsickle
p2410
aVrammer
p2411
aVcleaver
p2412
aVknife
p2413
aVspreader
p2414
aVawl
p2415
aVparang
p2416
aVicepick
p2417
aVax
p2418
aVsnips
p2419
aVscalpel
p2420
aVhandsaw
p2421
aVpenknife
p2422
aVchisel
p2423
aVgrapnel
p2424
aVshears
p2425
aVgavel
p2426
aVpliers
p2427
aVscrewdriver
p2428
aVrazor
p2429
aVscissors
p2430
aVpincer
p2431
aVeolith
p2432
aVjointer
p2433
aVswitchblade
p2434
aVbandsaw
p2435
aVrazorblade
p2436
aVcatling
p2437
aVshovel
p2438
aVbarong
p2439
aVtamp
p2440
aVcorkscrew
p2441
aVscriber
p2442
aVtrowel
p2443
aVpitchfork
p2444
aVhoe
p2445
aVscraper
p2446
aVdrawknife
p2447
aVbender
p2448
aVadz
p2449
aVpoleax
p2450
aVmattock
p2451
aVbradawl
p2452
aVcrampon
p2453
aVplow
p2454
aVspokeshave
p2455
aVtoothpick
p2456
aVbullnose
p2457
aVmaul
p2458
asS'symptoms'
p2459
(lp2460
Vfever
p2461
aVsneeze
p2462
aVvasculitis
p2463
aVesophagitis
p2464
aVconjunctivitis
p2465
aVnumbness
p2466
aVtoothache
p2467
aVtetany
p2468
aVblepharitis
p2469
aVblepharospasm
p2470
aVfurring
p2471
aVoliguria
p2472
aVbursitis
p2473
aVcallosity
p2474
aVhydrophobia
p2475
aVthyroiditis
p2476
aVstomachache
p2477
aVeosinophilia
p2478
aVtrichinosis
p2479
aVuveitis
p2480
aVintertrigo
p2481
aVtenosynovitis
p2482
aVinflammation
p2483
aVpolyarteritis
p2484
aVdiarrhea
p2485
aVstuffiness
p2486
aVmyalgia
p2487
aVmeningoencephalitis
p2488
aVengorgement
p2489
aVchafe
p2490
aVcrick
p2491
aVdyspnea
p2492
aVclubbing
p2493
aVfasciculation
p2494
aVsciatica
p2495
aVapnea
p2496
aVfolliculitis
p2497
aVtonsillitis
p2498
aVdizziness
p2499
aVglycosuria
p2500
aVarteritis
p2501
aVcausalgia
p2502
aVthrombophlebitis
p2503
aVconstipation
p2504
aVstridor
p2505
aVmigraine
p2506
aVcholecystitis
p2507
aVlabyrinthitis
p2508
aVlymphangitis
p2509
aVappendicitis
p2510
aVrash
p2511
aVproctitis
p2512
aVatrophy
p2513
aVhypokalemia
p2514
aVmetritis
p2515
aVautism
p2516
aVcough
p2517
aVhypocalcemia
p2518
aVhypercholesterolemia
p2519
aVketonuria
p2520
aVcongestion
p2521
aVscar
p2522
aVneuritis
p2523
aVwheeziness
p2524
aVafterpains
p2525
aVchloasma
p2526
aVearache
p2527
aVmastitis
p2528
aVcheilitis
p2529
aVpneumonitis
p2530
aVaura
p2531
aVglossitis
p2532
aVexanthem
p2533
aVbackache
p2534
aVsalpingitis
p2535
aVepicondylitis
p2536
aVtenesmus
p2537
aViritis
p2538
aVindigestion
p2539
aVlymphadenitis
p2540
aVencephalitis
p2541
aVsynovitis
p2542
aVpain
p2543
aVendocarditis
p2544
aVepididymitis
p2545
aVsting
p2546
aVtendinitis
p2547
aVmyositis
p2548
aVcardiomegaly
p2549
aVbloat
p2550
aVhiccup
p2551
aVcolic
p2552
aVepiglottitis
p2553
aVlaryngitis
p2554
aVhemoptysis
p2555
aVtwitch
p2556
aVtrismus
p2557
aVrhinorrhea
p2558
aVhyperkalemia
p2559
aVthrombocytosis
p2560
aVexophthalmos
p2561
aVfibrositis
p2562
aVparesthesia
p2563
aVkernicterus
p2564
aVvaginitis
p2565
aVdermatomyositis
p2566
aVache
p2567
aVencephalomyelitis
p2568
aVswelling
p2569
aVorchitis
p2570
aVcyanosis
p2571
aVedema
p2572
aVabscess
p2573
aVkeloid
p2574
aVhematoma
p2575
aVdiuresis
p2576
aVcellulitis
p2577
aVbunion
p2578
aVpericarditis
p2579
aVpanencephalitis
p2580
aVenteritis
p2581
aVmastalgia
p2582
aVkeratoconjunctivitis
p2583
aVparotitis
p2584
aVpockmark
p2585
aVmastoiditis
p2586
aVtic
p2587
aVbalanitis
p2588
aVmeningism
p2589
aVprodrome
p2590
aVhyponatremia
p2591
aVpolymyositis
p2592
aVotitis
p2593
aVmyelitis
p2594
aVlumbago
p2595
aVqueasiness
p2596
aVpyuria
p2597
aVhemorrhoid
p2598
aVosteomyelitis
p2599
aVcatarrh
p2600
aVseasickness
p2601
aVspasm
p2602
aVfibrillation
p2603
aVrhinitis
p2604
aVhyperglycemia
p2605
aVtracheobronchitis
p2606
aVangioedema
p2607
aVretinitis
p2608
aVhypercalcemia
p2609
aVsialadenitis
p2610
aVsinusitis
p2611
aVlaminitis
p2612
aVgastritis
p2613
aVlymphedema
p2614
aVcostochondritis
p2615
aVhardening
p2616
aVphlebitis
p2617
aVcervicitis
p2618
aVstomatitis
p2619
aVpolyneuritis
p2620
aVileitis
p2621
aVthrob
p2622
aVheartburn
p2623
aVpalpitation
p2624
aVdysmenorrhea
p2625
aVhyperpyrexia
p2626
aVnausea
p2627
aVkeratitis
p2628
aVmyoclonus
p2629
aVhematuria
p2630
aVcholangitis
p2631
aVophthalmia
p2632
aVbubo
p2633
aVburn
p2634
aVdiverticulitis
p2635
aVpancreatitis
p2636
aVquartan
p2637
aVspondylitis
p2638
aVamenorrhea
p2639
aVarthralgia
p2640
aVhypoglycemia
p2641
aVtinnitus
p2642
aVscleritis
p2643
aVhypercalciuria
p2644
aVthroe
p2645
aVosteitis
p2646
aVperitonitis
p2647
aValveolitis
p2648
aValbuminuria
p2649
aVsmart
p2650
aVmenorrhagia
p2651
aVneuralgia
p2652
aVcolitis
p2653
aVjaundice
p2654
aVprostatitis
p2655
asS'wood'
p2656
(lp2657
Vpecan
p2658
aVcypress
p2659
aVbirch
p2660
aVlancewood
p2661
aVamboyna
p2662
aVpoon
p2663
aVlogwood
p2664
aVsumac
p2665
aVpoplar
p2666
aVmatchwood
p2667
aVbriarwood
p2668
aVrosewood
p2669
aVeucalyptus
p2670
aVsequoia
p2671
aVsoftwood
p2672
aVlemonwood
p2673
aVtulipwood
p2674
aVcherry
p2675
aVsandalwood
p2676
aVsapwood
p2677
aVyew
p2678
aVburl
p2679
aVapplewood
p2680
aVbrushwood
p2681
aValder
p2682
aVfir
p2683
aVredwood
p2684
aVbentwood
p2685
aVpulpwood
p2686
aVtupelo
p2687
aVboxwood
p2688
aVsawdust
p2689
aVlog
p2690
aVspruce
p2691
aVbamboo
p2692
aVoak
p2693
aVblackwood
p2694
aVbasswood
p2695
aVbalsa
p2696
aVfruitwood
p2697
aVhardwood
p2698
aVdriftwood
p2699
aVteak
p2700
aVlarch
p2701
aVwicker
p2702
aVheartwood
p2703
aVhickory
p2704
aVchestnut
p2705
aVkingwood
p2706
aVmaple
p2707
aVmahogany
p2708
aVsycamore
p2709
aVgrove
p2710
aVflute
p2711
aVshawm
p2712
aVfife
p2713
aVcontrabassoon
p2714
aVkrummhorn
p2715
aVclarinet
p2716
aVpiccolo
p2717
aVoboe
p2718
aVbassoon
p2719
aVbrassie
p2720
asS'music'
p2721
(lp2722
Vjig
p2723
aVkeen
p2724
aVtune
p2725
aVcanticle
p2726
aVtarantella
p2727
aVdescant
p2728
aVscat
p2729
aVdoxology
p2730
aVostinato
p2731
aVpastorale
p2732
aVoperetta
p2733
aVleitmotiv
p2734
aVpreamble
p2735
aVsong
p2736
aVhabanera
p2737
aVmezuzah
p2738
aVdisco
p2739
aVreggae
p2740
aVantiphony
p2741
aVadagio
p2742
aVprothalamion
p2743
aVtoccata
p2744
aVflamenco
p2745
aVintroit
p2746
aVantiphon
p2747
aVrondo
p2748
aVnocturne
p2749
aVscherzo
p2750
aVrefrain
p2751
aVintermezzo
p2752
aVtechno
p2753
aVragtime
p2754
aVexcerpt
p2755
aVquickstep
p2756
aVprolegomenon
p2757
aVrecitative
p2758
aVaria
p2759
aVballad
p2760
aVquintet
p2761
aVsaraband
p2762
aVconcerto
p2763
aVobbligato
p2764
aVplainsong
p2765
aVchorale
p2766
aVpopularism
p2767
aVoverture
p2768
aVbarcarole
p2769
aVepigraph
p2770
aVserialism
p2771
aVbagatelle
p2772
aVsuite
p2773
aVarioso
p2774
aVprimo
p2775
aVsymphony
p2776
aVchant
p2777
aVexordium
p2778
aVanalects
p2779
aVpostlude
p2780
aVspiritual
p2781
aVcarol
p2782
aVrumba
p2783
aVkwela
p2784
aVschottische
p2785
aVligature
p2786
aVmorceau
p2787
aVboogie
p2788
aVsection
p2789
aVlarghetto
p2790
aVskiffle
p2791
aVforeword
p2792
aVsonata
p2793
aVcanto
p2794
aVcadenza
p2795
aVhymn
p2796
aVcantata
p2797
aVetude
p2798
aVoldie
p2799
aVlargo
p2800
aVfantasia
p2801
aVprocessional
p2802
aVprologue
p2803
aVsecondo
p2804
aVmisquotation
p2805
aVpartita
p2806
aVsonatina
p2807
aVinsert
p2808
aVblues
p2809
aVditty
p2810
aVpolka
p2811
aVrockabilly
p2812
aVmazurka
p2813
aVepilogue
p2814
aVconga
p2815
aVlied
p2816
aVchapter
p2817
aVswoop
p2818
aVzydeco
p2819
aVfinale
p2820
aVroundelay
p2821
aVmadrigal
p2822
aVfado
p2823
aVdissolve
p2824
aVpavane
p2825
aVmotet
p2826
aVcounterpoint
p2827
aVpolyphony
p2828
aVorchestration
p2829
aVchantey
p2830
aVdirge
p2831
aVglissando
p2832
aVopera
p2833
aVdivertimento
p2834
aVpizzicato
p2835
aVgradual
p2836
aVflashback
p2837
aVharmonization
p2838
aVmedley
p2839
aVcapriccio
p2840
aVclipping
p2841
aVtrad
p2842
aVpibroch
p2843
aVsura
p2844
aVquadrille
p2845
aVchopin
p2846
aVabove
p2847
aVsextet
p2848
aVanthem
p2849
aVlullaby
p2850
aVarietta
p2851
aVbolero
p2852
aVkaraoke
p2853
aVsinging
p2854
aVpercussion
p2855
aVsingalong
p2856
aVdrumming
p2857
aVcantillation
p2858
aVpsalmody
p2859
aVyodeling
p2860
asS'wrongdoing'
p2861
(lp2862
Vsnobbery
p2863
aVhousebreaking
p2864
aVbribery
p2865
aVraffle
p2866
aVgerrymander
p2867
aVscam
p2868
aVimposture
p2869
aVfraud
p2870
aVinjustice
p2871
aVperpetration
p2872
aVsedition
p2873
aVdisservice
p2874
aVsellout
p2875
aVgambling
p2876
aVhubris
p2877
aVvandalism
p2878
aVbunco
p2879
aVparlay
p2880
aVlying
p2881
aVmisfeasance
p2882
aVthuggery
p2883
aVinroad
p2884
aVevil
p2885
aVbiopiracy
p2886
aVmischief
p2887
aVclannishness
p2888
aVcybercrime
p2889
aVheist
p2890
aVrobbery
p2891
aVshoplifting
p2892
aVblackmail
p2893
aVaffectation
p2894
aVmalpractice
p2895
aVdeviltry
p2896
aVfoul
p2897
aVpiracy
p2898
aVtombola
p2899
aVsweepstakes
p2900
aVmalfeasance
p2901
aVavarice
p2902
aVchamperty
p2903
aVmolestation
p2904
aVhijack
p2905
aVprostitution
p2906
aVexacta
p2907
aVabduction
p2908
aVburglary
p2909
aVfelony
p2910
aVkidnapping
p2911
aVracketeering
p2912
aVswiz
p2913
aVtreason
p2914
aVmisbehavior
p2915
aVtort
p2916
aVembezzlement
p2917
aVfakery
p2918
aVcarjacking
p2919
aVperjury
p2920
aVmayhem
p2921
aVimperiousness
p2922
aVprofanation
p2923
aVmugging
p2924
aVmisdemeanor
p2925
aVpilferage
p2926
aVjugglery
p2927
aVtrespass
p2928
aVarrogance
p2929
aVswindle
p2930
aVpretense
p2931
aVrustling
p2932
aVtransgression
p2933
aVcondescension
p2934
aVcharlatanism
p2935
aVlarceny
p2936
aVcrime
p2937
asS'vehicle'
p2938
(lp2939
Vforklift
p2940
aVdoodlebug
p2941
aVbumboat
p2942
aVstagecoach
p2943
aVbogy
p2944
aVbrougham
p2945
aVbrig
p2946
aVbookmobile
p2947
aVtrimaran
p2948
aVbuggy
p2949
aVsubmarine
p2950
aVsulky
p2951
aVhouseboat
p2952
aVpullman
p2953
aVjeep
p2954
aVsupertanker
p2955
aVstanhope
p2956
aVinterceptor
p2957
aVwhaleboat
p2958
aVskyhook
p2959
aVremise
p2960
aVlifeboat
p2961
aVboneshaker
p2962
aVdhow
p2963
aVmailboat
p2964
aVboat
p2965
aVhansom
p2966
aVsnowplow
p2967
aVlightship
p2968
aVknockabout
p2969
aVtruck
p2970
aVairliner
p2971
aVtugboat
p2972
aVoxcart
p2973
aVairplane
p2974
aVsloop
p2975
aVmotorboat
p2976
aVhardtop
p2977
aVpantechnicon
p2978
aVhearse
p2979
aVshowboat
p2980
aVtrireme
p2981
aVgunboat
p2982
aVbobsled
p2983
aVbarouche
p2984
aVaircraft
p2985
aVbrigantine
p2986
aVlimousine
p2987
aVjetliner
p2988
aVyacht
p2989
aVspacecraft
p2990
aVfelucca
p2991
aVstreetcar
p2992
aVtank
p2993
aVdestroyer
p2994
aVsteamboat
p2995
aVclarence
p2996
aVbicycle
p2997
aVconvertible
p2998
aVkayak
p2999
aVskateboard
p3000
aVfloatplane
p3001
aVtramcar
p3002
aVicebreaker
p3003
aVkamikaze
p3004
aVamphibian
p3005
aVcanoe
p3006
aVfrigate
p3007
aVwagon
p3008
aVtroopship
p3009
aVgalleon
p3010
aVminivan
p3011
aVcorvette
p3012
aVtumbrel
p3013
aVdray
p3014
aVlaunch
p3015
aVcar
p3016
aVsedan
p3017
aVcoracle
p3018
aVambulance
p3019
aVgig
p3020
aVbareboat
p3021
aVcart
p3022
aVpontoon
p3023
aVstockcar
p3024
aVlugger
p3025
aVwarplane
p3026
aVmotorcycle
p3027
aVminicab
p3028
aVseaplane
p3029
aVwherry
p3030
aVferry
p3031
aVairship
p3032
aVbarge
p3033
aVwarship
p3034
aVcruiser
p3035
aVsled
p3036
aVminelayer
p3037
aVpung
p3038
aVbulldozer
p3039
aVlorry
p3040
aVsternwheeler
p3041
aVjet
p3042
aVpickup
p3043
aVdinky
p3044
aVdreadnought
p3045
aVroadster
p3046
aVmoped
p3047
aVvelocipede
p3048
aVglider
p3049
aVairbus
p3050
aVunicycle
p3051
aVsubcompact
p3052
aVcoupe
p3053
aVscow
p3054
aVtechnical
p3055
aVhatchback
p3056
aVspeedboat
p3057
aVcarrack
p3058
aVexocet
p3059
aVhackney
p3060
aVmonoplane
p3061
aVhelicopter
p3062
aVcatamaran
p3063
aVrocket
p3064
aVelectric
p3065
aVkeelboat
p3066
aVbattleship
p3067
aVbiplane
p3068
aVyawl
p3069
aVsnowmobile
p3070
aVpedicab
p3071
aVsailboat
p3072
aVtractor
p3073
aVluge
p3074
aVtransporter
p3075
aVboxcar
p3076
aVtroika
p3077
aVhandcart
p3078
aVstarship
p3079
aVhumvee
p3080
aVskiff
p3081
aVfireboat
p3082
aVhovercraft
p3083
aVbomber
p3084
aVminicar
p3085
aVsampan
p3086
aVshrimper
p3087
aVshipwreck
p3088
aVwindjammer
p3089
aVtricycle
p3090
aVdredger
p3091
aVlongboat
p3092
aVpanzer
p3093
aVdinghy
p3094
aVship
p3095
aVlimber
p3096
aVtwinjet
p3097
aVgalley
p3098
aVchariot
p3099
aVketch
p3100
aVminesweeper
p3101
aVironclad
p3102
aVminibike
p3103
aVlocomotive
p3104
aVautogiro
p3105
aVnautilus
p3106
aVcockleshell
p3107
aVmissile
p3108
aVtoboggan
p3109
aVdogsled
p3110
aVshunter
p3111
aVindiaman
p3112
aVballoon
p3113
asS'criminal'
p3114
(lp3115
Vcutthroat
p3116
aVdacoit
p3117
aVrustler
p3118
aVkidnapper
p3119
aVpickpocket
p3120
aVparricide
p3121
aVbootlegger
p3122
aVarsonist
p3123
aVyardie
p3124
aVconspirator
p3125
aVgunrunner
p3126
aVfratricide
p3127
aVrobber
p3128
aVembezzler
p3129
aVbriber
p3130
aVyakuza
p3131
aVviolator
p3132
aVbandit
p3133
aVmugger
p3134
aVthief
p3135
aVsnatcher
p3136
aVescapee
p3137
aVplunderer
p3138
aVrecidivist
p3139
aVripper
p3140
aVgangster
p3141
aVdesperado
p3142
aVmurderer
p3143
aVassassin
p3144
aVmurderess
p3145
aVmoll
p3146
aVhood
p3147
aVmatricide
p3148
aVgunman
p3149
aVfootpad
p3150
aVhousebreaker
p3151
aVpatricide
p3152
aVracketeer
p3153
aVgraverobber
p3154
aVhighjacker
p3155
aVsmuggler
p3156
aVabettor
p3157
aVabsconder
p3158
aVplagiarist
p3159
aVraper
p3160
aVblackmailer
p3161
aVburglar
p3162
aVcorsair
p3163
aVtraitor
p3164
aVinfanticide
p3165
asS'bird'
p3166
(lp3167
Vswiftlet
p3168
aVegret
p3169
aVperegrine
p3170
aVcoucal
p3171
aVdowitcher
p3172
aVstork
p3173
aVbobwhite
p3174
aVibis
p3175
aVroadrunner
p3176
aVantbird
p3177
aVmonal
p3178
aVsanderling
p3179
aVkea
p3180
aVsmew
p3181
aVsolan
p3182
aVgreenshank
p3183
aVhoopoe
p3184
aVtouraco
p3185
aVgamecock
p3186
aVmagpie
p3187
aVwaxwing
p3188
aVcurlew
p3189
aVscaup
p3190
aVtiercel
p3191
aVdominique
p3192
aVlyrebird
p3193
aVfrogmouth
p3194
aVgander
p3195
aVmeadowlark
p3196
aVlory
p3197
aVbutcherbird
p3198
aVshelduck
p3199
aVkingfisher
p3200
aVtanager
p3201
aVbufflehead
p3202
aVbowerbird
p3203
aVtoucanet
p3204
aVpochard
p3205
aVmamo
p3206
aVauklet
p3207
aVwhydah
p3208
aVstonechat
p3209
aVchunga
p3210
aVpoorwill
p3211
aVpiculet
p3212
aVredshank
p3213
aVscoter
p3214
aVmerganser
p3215
aVcanvasback
p3216
aVarchaeopteryx
p3217
aVpitta
p3218
aVtragopan
p3219
aVfalcon
p3220
aVcorncrake
p3221
aVpintail
p3222
aVbellbird
p3223
aVcacique
p3224
aVboatbill
p3225
aVcormorant
p3226
aVweka
p3227
aVtinamou
p3228
aVblackpoll
p3229
aVhawfinch
p3230
aVpheasant
p3231
aVredtail
p3232
aVsongbird
p3233
aVavadavat
p3234
aVopenbill
p3235
aVcotinga
p3236
aVpeafowl
p3237
aVowlet
p3238
aVcurrawong
p3239
aVcassowary
p3240
aVpratincole
p3241
aVbulbul
p3242
aVlorikeet
p3243
aVcapercaillie
p3244
aVfieldfare
p3245
aVwoodcock
p3246
aVduck
p3247
aVmacaw
p3248
aVcygnet
p3249
aVplover
p3250
aVturkey
p3251
aVhummingbird
p3252
aVchick
p3253
aVdotterel
p3254
aVbustard
p3255
aVjacamar
p3256
aVgallinule
p3257
aVpasserine
p3258
aVpyrrhuloxia
p3259
aVtrogon
p3260
aVmyna
p3261
aVgodwit
p3262
aVoystercatcher
p3263
aVbrant
p3264
aVcoot
p3265
aVgnatcatcher
p3266
aVparrot
p3267
aVredpoll
p3268
aVcockerel
p3269
aVwagtail
p3270
aVtitmouse
p3271
aVorpington
p3272
aVbaya
p3273
aVkittiwake
p3274
aVcrossbill
p3275
aVcockatoo
p3276
aVchickadee
p3277
aVtody
p3278
aVflamingo
p3279
aVtern
p3280
aVpuffin
p3281
aVdorking
p3282
aVgoldcrest
p3283
aVhen
p3284
aVmoorcock
p3285
aVsandgrouse
p3286
aVlimpkin
p3287
aVbushtit
p3288
aVbobolink
p3289
aVchough
p3290
aVjackdaw
p3291
aVtailorbird
p3292
aVvulture
p3293
aVshearwater
p3294
aVguillemot
p3295
aVyellowlegs
p3296
aVcowbird
p3297
aVvireo
p3298
aVwillet
p3299
aVskylark
p3300
aVmegapode
p3301
aVseabird
p3302
aVovenbird
p3303
aVavocet
p3304
aVswan
p3305
aVeaglet
p3306
aVspoonbill
p3307
aVhawk
p3308
aVosprey
p3309
aVtoucan
p3310
aVpuffbird
p3311
aVpetrel
p3312
aVparakeet
p3313
aVdabchick
p3314
aVeagle
p3315
aVguan
p3316
aVshoebill
p3317
aVbittern
p3318
aVwaterfowl
p3319
aVblackburn
p3320
aVgannet
p3321
aVreeve
p3322
aVverdin
p3323
aVbuzzard
p3324
aVserin
p3325
aVsurfbird
p3326
aVpipit
p3327
aVmoa
p3328
aVcochin
p3329
aVveery
p3330
aVshrike
p3331
aVshorebird
p3332
aVphalarope
p3333
aVcoscoroba
p3334
aVpelican
p3335
aVcrow
p3336
aVgarganey
p3337
aVmarabou
p3338
aVgyrfalcon
p3339
aVsiskin
p3340
aVpigeon
p3341
aVchachalaca
p3342
aVsapsucker
p3343
aVsparrow
p3344
aVblackcock
p3345
aVmallard
p3346
aVyellowthroat
p3347
aVpewee
p3348
aVaccentor
p3349
aVjunco
p3350
aVsnipe
p3351
aVortolan
p3352
aVgrebe
p3353
aVsandpiper
p3354
aVgosling
p3355
aVnightingale
p3356
aVbantam
p3357
aVdove
p3358
aVgreylag
p3359
aVtowhee
p3360
aVadelie
p3361
aVeider
p3362
aVhoneycreeper
p3363
aVauk
p3364
aVgoosander
p3365
aVmockingbird
p3366
aVriflebird
p3367
aVwidgeon
p3368
aVcondor
p3369
aVnuthatch
p3370
aVgoshawk
p3371
aVkingbird
p3372
aVrazorbill
p3373
aVbudgerigar
p3374
aVpenguin
p3375
aVkinglet
p3376
aVwheatear
p3377
aVwhinchat
p3378
aVani
p3379
aVmurre
p3380
aVraven
p3381
aVfinch
p3382
aVoilbird
p3383
aVthornbill
p3384
aVmoorhen
p3385
aVgrosbeak
p3386
aVfulmar
p3387
aVgoose
p3388
aVratite
p3389
aVhornbill
p3390
aVbarbet
p3391
aVwoodpecker
p3392
aVcaracara
p3393
aVkilldeer
p3394
aVbluethroat
p3395
aVowl
p3396
aVchaffinch
p3397
aVcrake
p3398
aVjaeger
p3399
aVhoatzin
p3400
aVstarling
p3401
aVcurassow
p3402
aVwhippoorwill
p3403
aVpeahen
p3404
aVkookaburra
p3405
aVlapwing
p3406
aVskua
p3407
aVrobin
p3408
aVbrambling
p3409
aVmotmot
p3410
aVturnstone
p3411
aVptarmigan
p3412
aVern
p3413
aVduckling
p3414
aVchicken
p3415
aVwildfowl
p3416
aVfryer
p3417
aVspatchcock
p3418
aVpartridge
p3419
aVquail
p3420
aVsquab
p3421
aVcapon
p3422
aVgrouse
p3423
asS'sickness'
p3424
(lp3425
Vdysentery
p3426
aVneurodermatitis
p3427
aVscleroderma
p3428
aVdiphtheria
p3429
aVleukemia
p3430
aVpimple
p3431
aVpsittacosis
p3432
aVfurunculosis
p3433
aVscrofula
p3434
aVosteopetrosis
p3435
aVepithelioma
p3436
aVtrachoma
p3437
aVcystitis
p3438
aVscurvy
p3439
aVtuberculosis
p3440
aVendemic
p3441
aVporphyria
p3442
aVscrapie
p3443
aVmyeloma
p3444
aVheaves
p3445
aVretinopathy
p3446
aVacanthosis
p3447
aVdermatitis
p3448
aVsarcoma
p3449
aVsmallpox
p3450
aVmyxomatosis
p3451
aVmeningioma
p3452
aVpreeclampsia
p3453
aVprurigo
p3454
aVkeratosis
p3455
aVcancer
p3456
aVarthritis
p3457
aVcanker
p3458
aVrheumatism
p3459
aVmeningoencephalitis
p3460
aVdermatosis
p3461
aVquinsy
p3462
aVherpes
p3463
aVerythroderma
p3464
aVwarble
p3465
aVlisteriosis
p3466
aVmesothelioma
p3467
aVdrusen
p3468
aVneurasthenia
p3469
aVdengue
p3470
aVpneumonia
p3471
aVdieback
p3472
aVgoiter
p3473
aVangiosarcoma
p3474
aVadenocarcinoma
p3475
aVseminoma
p3476
aVasthma
p3477
aVtumor
p3478
aVgranuloma
p3479
aVpellagra
p3480
aVrickets
p3481
aVpip
p3482
aVthalassemia
p3483
aVspavin
p3484
aVplasmacytoma
p3485
aVthrombasthenia
p3486
aVwilt
p3487
aVlupus
p3488
aVhemangioma
p3489
aVpoliomyelitis
p3490
aVfilariasis
p3491
aVmeasles
p3492
aVneuroblastoma
p3493
aVpheochromocytoma
p3494
aVmeningitis
p3495
aVasbestosis
p3496
aVdisease
p3497
aVstaggers
p3498
aVparatyphoid
p3499
aVurethritis
p3500
aVcamelpox
p3501
aVshigellosis
p3502
aVacne
p3503
aVrinderpest
p3504
aVcirrhosis
p3505
aVgingivitis
p3506
aVangioma
p3507
aVseborrhea
p3508
aVphenylketonuria
p3509
aVyaws
p3510
aVleiomyoma
p3511
aVanaplasmosis
p3512
aVmyxoma
p3513
aVcarcinoma
p3514
aVeczema
p3515
aVosteoarthritis
p3516
aVchondrosarcoma
p3517
aVglanders
p3518
aVkwashiorkor
p3519
aVague
p3520
aVsalmonellosis
p3521
aVadenoma
p3522
aVamyloidosis
p3523
aVcreeps
p3524
aVmelanoma
p3525
aVotosclerosis
p3526
aVmucopolysaccharidosis
p3527
aVpapule
p3528
aVlymphoma
p3529
aVcollapse
p3530
aVretinoblastoma
p3531
aVtyphoid
p3532
aVpemphigus
p3533
aVergot
p3534
aVheatstroke
p3535
aVosteoma
p3536
aVliposarcoma
p3537
aVpsoriasis
p3538
aVbrucellosis
p3539
aVplague
p3540
aVhamartoma
p3541
aVmolluscum
p3542
aVbronchopneumonia
p3543
aVhepatoma
p3544
aVtrembles
p3545
aVichthyosis
p3546
aVinfluenza
p3547
aVfibroadenoma
p3548
aVcataract
p3549
aVcroup
p3550
aVimpetigo
p3551
aVrhabdomyosarcoma
p3552
aVlivedo
p3553
aVdistemper
p3554
aVneuroma
p3555
aVzoonosis
p3556
aVemphysema
p3557
aVpyelonephritis
p3558
aVdwarfism
p3559
aVcarcinoid
p3560
aVpock
p3561
aVsyphilis
p3562
aVmange
p3563
aVpleuropneumonia
p3564
aVmalignancy
p3565
aVsodoku
p3566
aVhypogonadism
p3567
aVbluetongue
p3568
aVmelanosis
p3569
aVtyphus
p3570
aVberiberi
p3571
aVblackheart
p3572
aVpeduncle
p3573
aVfibroma
p3574
aVxeroderma
p3575
aVglioblastoma
p3576
aVangina
p3577
aVaids
p3578
aVdandruff
p3579
aVenteropathy
p3580
aVhepatitis
p3581
aVlichen
p3582
aVmyoma
p3583
aVmalnutrition
p3584
aVosteochondroma
p3585
aVbotulism
p3586
aVpneumoconiosis
p3587
aVneurofibromatosis
p3588
aVbronchitis
p3589
aVcold
p3590
aVglaucoma
p3591
aVscours
p3592
aVsilicosis
p3593
aVsunstroke
p3594
aVleprosy
p3595
aVlipoma
p3596
aVxanthoma
p3597
aVteratoma
p3598
aVachondroplasia
p3599
aVblackwater
p3600
aVanthrax
p3601
aVgout
p3602
aVbighead
p3603
aVpolyp
p3604
aVerysipelas
p3605
aVleiomyosarcoma
p3606
aVrabies
p3607
aVindisposition
p3608
aVcowpox
p3609
aVrhinotracheitis
p3610
aVvitiligo
p3611
aVempyema
p3612
aVbronchiolitis
p3613
aVactinomycosis
p3614
aVchoriomeningitis
p3615
aVtularemia
p3616
aVaspergillosis
p3617
aVcholera
p3618
aVexostosis
p3619
aVmarasmus
p3620
aVosteosarcoma
p3621
aVpapilloma
p3622
aVpityriasis
p3623
aVgonorrhea
p3624
aVglioma
p3625
aVchickenpox
p3626
aVgastroenteritis
p3627
aVerythema
p3628
aVchlamydia
p3629
aVpleurisy
p3630
aVpustule
p3631
aVdiabetes
p3632
aVmumps
p3633
aVonycholysis
p3634
aVmurrain
p3635
aVeclampsia
p3636
aVseasickness
p3637
aVqueasiness
p3638
asS'herb'
p3639
(lp3640
Vkohlrabi
p3641
aVhyssop
p3642
aVcereal
p3643
aVmilo
p3644
aVblinks
p3645
aVwasabi
p3646
aVauricula
p3647
aVbelladonna
p3648
aVbuckwheat
p3649
aVsesame
p3650
aVramie
p3651
aVspelt
p3652
aVcauliflower
p3653
aVfireweed
p3654
aVrampion
p3655
aVspirea
p3656
aVwintergreen
p3657
aVsafflower
p3658
aVaspidistra
p3659
aValyssum
p3660
aVthyme
p3661
aVcomfrey
p3662
aVfoxtail
p3663
aVcardoon
p3664
aVamorphophallus
p3665
aVbergenia
p3666
aVcleavers
p3667
aVdagga
p3668
aVhepatica
p3669
aVtallgrass
p3670
aVcollard
p3671
aVbluegrass
p3672
aVtomatillo
p3673
aVpineapple
p3674
aVplantain
p3675
aVanise
p3676
aVorach
p3677
aVsorghum
p3678
aVcrucifer
p3679
aVmilkweed
p3680
aVbutterwort
p3681
aVinula
p3682
aVumbellifer
p3683
aVhenbane
p3684
aVstevia
p3685
aVoregano
p3686
aVteff
p3687
aVwheat
p3688
aVgoldenseal
p3689
aVpurslane
p3690
aVpeppermint
p3691
aVoat
p3692
aVmignonette
p3693
aVwillowherb
p3694
aVknotgrass
p3695
aVbladderwort
p3696
aVcatmint
p3697
aVnasturtium
p3698
aVspinach
p3699
aVcaladium
p3700
aVgrama
p3701
aVviolet
p3702
aVmullein
p3703
aVbeet
p3704
aVprimrose
p3705
aVfraxinella
p3706
aVclary
p3707
aVpopcorn
p3708
aVlobelia
p3709
aVcumin
p3710
aVastrantia
p3711
aVpennyroyal
p3712
aVpeperomia
p3713
aVgipsywort
p3714
aVhawkweed
p3715
aVfleabane
p3716
aVmustard
p3717
aVgromwell
p3718
aVbloodroot
p3719
aVclover
p3720
aVsimple
p3721
aVcoreopsis
p3722
aVwheatgrass
p3723
aVpia
p3724
aVcaraway
p3725
aVfennel
p3726
aVpokeweed
p3727
aVlicorice
p3728
aVmillet
p3729
aVguar
p3730
aVsedum
p3731
aVgrass
p3732
aVfescue
p3733
aVturmeric
p3734
aVherbage
p3735
aVcordgrass
p3736
aVphlox
p3737
aVreed
p3738
aVpolemonium
p3739
aVcalamint
p3740
aVchard
p3741
aVpoke
p3742
aVcowslip
p3743
aVbrome
p3744
aVmeadowgrass
p3745
aVfeverfew
p3746
aVchervil
p3747
aVmonarda
p3748
aVrosemary
p3749
aVcolumbo
p3750
aVgalax
p3751
aVoxlip
p3752
aVgalangal
p3753
aVbugloss
p3754
aVfumitory
p3755
aVbutterbur
p3756
aValexander
p3757
aVchamomile
p3758
aVturnip
p3759
aVgoosefoot
p3760
aVgeranium
p3761
aVtimothy
p3762
aVparsley
p3763
aVsanicle
p3764
aVstonecrop
p3765
aVbasil
p3766
aVfenugreek
p3767
aVpansy
p3768
aVlegume
p3769
aVmedic
p3770
aVendive
p3771
aVcardamom
p3772
aVglobeflower
p3773
aVsavory
p3774
aVstitchwort
p3775
aVwort
p3776
aVhenbit
p3777
aVyarrow
p3778
aVachillea
p3779
aVelecampane
p3780
aVchess
p3781
aVastilbe
p3782
aVombu
p3783
aVbuttercup
p3784
aVdurum
p3785
aVangelica
p3786
aVbedstraw
p3787
aVcelery
p3788
aVstorksbill
p3789
aVasparagus
p3790
aVacanthus
p3791
aVborage
p3792
aVspearmint
p3793
aVcanna
p3794
aVbittercress
p3795
aVharicot
p3796
aVoxalis
p3797
aVwaterleaf
p3798
aVkniphofia
p3799
aVcrabgrass
p3800
aVchickweed
p3801
aValfalfa
p3802
aVcoriander
p3803
aVartichoke
p3804
aVoca
p3805
aVemmer
p3806
aVbanana
p3807
aVrape
p3808
aVcampanula
p3809
aVagrimonia
p3810
aVlovage
p3811
aVcorn
p3812
aValocasia
p3813
aVsandbur
p3814
aVteasel
p3815
aVdarnel
p3816
aVrue
p3817
aVsainfoin
p3818
aVcockscomb
p3819
aVcoleus
p3820
aVmotherwort
p3821
aVceleriac
p3822
aVfoxglove
p3823
aVreseda
p3824
aVcranesbill
p3825
aVoriganum
p3826
aVviola
p3827
aVanchusa
p3828
aVbroccoli
p3829
aVhorehound
p3830
aVpolyanthus
p3831
aVwatercress
p3832
aVbeetroot
p3833
aVdandelion
p3834
aVvetch
p3835
aVcress
p3836
aVmung
p3837
aVdraba
p3838
aVsundew
p3839
aVginger
p3840
aVsaxifrage
p3841
aVdill
p3842
aVsouchong
p3843
aVdarjeeling
p3844
aVoolong
p3845
aVhyson
p3846
asS'musician'
p3847
(lp3848
Vbaritone
p3849
aVwarbler
p3850
aVbassist
p3851
aVbassoonist
p3852
aVflutist
p3853
aVguitarist
p3854
aVdrummer
p3855
aVbugler
p3856
aVoboist
p3857
aVkeyboardist
p3858
aVcastrato
p3859
aVsaxophonist
p3860
aVcontralto
p3861
aVchoirboy
p3862
aVtrombonist
p3863
aVviolist
p3864
aVpianist
p3865
aVorganist
p3866
aVcrooner
p3867
aVviolinist
p3868
aVsoprano
p3869
aVhummer
p3870
aVrapper
p3871
aVharpsichordist
p3872
aVclarinetist
p3873
aVsoloist
p3874
aVcountertenor
p3875
aVharpist
p3876
aVbandsman
p3877
aVchorister
p3878
aVpercussionist
p3879
aVpiper
p3880
aVtrumpeter
p3881
aVsongstress
p3882
aVyodeller
p3883
aVsinger
p3884
aValto
p3885
aVcellist
p3886
aVmadrigalist
p3887
aVharmonizer
p3888
aVaccordionist
p3889
aVrecitalist
p3890
aVcoloratura
p3891
aVaccompanist
p3892
aVsongwriter
p3893
aVbandmaster
p3894
aVbandleader
p3895
aVorchestrator
p3896
aVsymphonist
p3897
aVcomposer
p3898
aVchoirmaster
p3899
aVpsalmist
p3900
aVconductor
p3901
asS'insect'
p3902
(lp3903
Veggar
p3904
aVpyralid
p3905
aVephemeron
p3906
aVhawkmoth
p3907
aVqueen
p3908
aVmantis
p3909
aVglowworm
p3910
aVhousefly
p3911
aVkatydid
p3912
aVfroghopper
p3913
aVpupa
p3914
aVcricket
p3915
aVflea
p3916
aVandrena
p3917
aVcockchafer
p3918
aVpollinator
p3919
aVblackfly
p3920
aVtermite
p3921
aVbee
p3922
aVpeacock
p3923
aVdrone
p3924
aVephemerid
p3925
aVdamselfly
p3926
aVbeetle
p3927
aVant
p3928
aVmosquito
p3929
aVmayfly
p3930
aVbumblebee
p3931
aVlocust
p3932
aVgrasshopper
p3933
aVcicada
p3934
aVcockroach
p3935
aVbooklouse
p3936
aVgoldeneye
p3937
aVscarab
p3938
aVstonefly
p3939
aVbutterfly
p3940
aVmidge
p3941
aVbedbug
p3942
aVblowfly
p3943
aVgreenbottle
p3944
aVdragonfly
p3945
aVmoth
p3946
aVwhitefly
p3947
aVbristletail
p3948
aVhornet
p3949
aVbotfly
p3950
aVsawfly
p3951
aVfly
p3952
aVfirefly
p3953
aVlouse
p3954
aVtussah
p3955
aVleafhopper
p3956
aVaphid
p3957
aVladybug
p3958
aVhairstreak
p3959
aVgnat
p3960
aVhoneybee
p3961
aVthrips
p3962
aVearwig
p3963
aVanopheline
p3964
aVdrosophila
p3965
aVchrysalis
p3966
aVmealybug
p3967
aVsilverfish
p3968
aVunderwing
p3969
aVbug
p3970
aVlacewing
p3971
aVweevil
p3972
aVgreenfly
p3973
asS'fruit'
p3974
(lp3975
Vhoneydew
p3976
aVcowpea
p3977
aVmelon
p3978
aVberry
p3979
aVprima
p3980
aVwalnut
p3981
aVbarleycorn
p3982
aVbeechnut
p3983
aVamaranth
p3984
aVbaneberry
p3985
aVgreengage
p3986
aVrye
p3987
aVseckel
p3988
aVpeanut
p3989
aVcortland
p3990
aVcarob
p3991
aVcalabash
p3992
aVavocado
p3993
aVsorb
p3994
aVcowage
p3995
aVseed
p3996
aVcottonseed
p3997
aVdelicious
p3998
aVcubeb
p3999
aVfreestone
p4000
aVprune
p4001
aVnutlet
p4002
aVcling
p4003
aVackee
p4004
aVokra
p4005
aVstrawberry
p4006
aVlinseed
p4007
aVmcintosh
p4008
aVblackberry
p4009
aVpear
p4010
aVpearmain
p4011
aVchickpea
p4012
aVmealie
p4013
aVachene
p4014
aVcurrant
p4015
aVbuckeye
p4016
aVcitron
p4017
aVapple
p4018
aVjonathan
p4019
aVgrape
p4020
aVcitrus
p4021
aVacorn
p4022
aVorange
p4023
aVdrupe
p4024
aVrapeseed
p4025
aVnut
p4026
aVsamara
p4027
aVacinus
p4028
aVoilseed
p4029
aVraisin
p4030
aVolive
p4031
aVdamson
p4032
aVsultana
p4033
aVsoy
p4034
aVpome
p4035
aVstayman
p4036
aVpippin
p4037
aVbosc
p4038
aVlemon
p4039
aVwindfall
p4040
asS'game'
p4041
(lp4042
Vfaro
p4043
aVraffle
p4044
aVdarts
p4045
aVbadminton
p4046
aVsingles
p4047
aVsoccer
p4048
aVauction
p4049
aVshogi
p4050
aVbaseball
p4051
aVbaccarat
p4052
aVanagrams
p4053
aVsnooker
p4054
aVshinny
p4055
aVtennis
p4056
aVpachisi
p4057
aVmonte
p4058
aVcheckers
p4059
aVbilliards
p4060
aVparcheesi
p4061
aVfives
p4062
aVbowling
p4063
aVpinochle
p4064
aVdoubles
p4065
aVeuchre
p4066
aVtombola
p4067
aVcanfield
p4068
aVbackgammon
p4069
aVhurling
p4070
aVbocce
p4071
aVhopscotch
p4072
aVwhist
p4073
aVdominoes
p4074
aVrugby
p4075
aVpeekaboo
p4076
aVbasketball
p4077
aVlacrosse
p4078
aVludo
p4079
aVcurling
p4080
aVrounders
p4081
aVvolleyball
p4082
aVcanasta
p4083
aVsweepstakes
p4084
aVninepins
p4085
aVhalma
p4086
aVcroquet
p4087
aVgolf
p4088
aVmarbles
p4089
aVhearts
p4090
aVpiquet
p4091
aVquoits
p4092
aVnim
p4093
aVshuffleboard
p4094
aVjacks
p4095
aVfootball
p4096
aVtiddlywinks
p4097
aVlotto
p4098
aVcribbage
p4099
aVnetball
p4100
aVcharades
p4101
aVpachinko
p4102
aVpinball
p4103
aVpeafowl
p4104
aVblackcock
p4105
aVtinamou
p4106
aVbobwhite
p4107
aVtragopan
p4108
aVcapercaillie
p4109
aVptarmigan
p4110
aVpheasant
p4111
aVpeahen
p4112
aVmoorcock
p4113
aVmonal
p4114
aVvenison
p4115
aVpriestcraft
p4116
aVcounterplot
p4117
aVintrigue
p4118
aVtangram
p4119
asS'wear'
p4120
(lp4121
Vslacks
p4122
aVaccessory
p4123
aVyashmak
p4124
aVcapote
p4125
aVloungewear
p4126
aVparka
p4127
aVbabushka
p4128
aVsarong
p4129
aVsurplice
p4130
aVbritches
p4131
aVtogs
p4132
aVnightwear
p4133
aVpullover
p4134
aVworkwear
p4135
aVwig
p4136
aVovergarment
p4137
aVkepi
p4138
aVsurcoat
p4139
aVcords
p4140
aVwraparound
p4141
aVabaya
p4142
aVtabi
p4143
aVvestment
p4144
aVdhoti
p4145
aVhijab
p4146
aVuniform
p4147
aVnylons
p4148
aVtippet
p4149
aVputtee
p4150
aVunderwear
p4151
aVturban
p4152
aVstole
p4153
aVironing
p4154
aVgown
p4155
aVaba
p4156
aVchino
p4157
aVkameez
p4158
aVburberry
p4159
aVundergarment
p4160
aVsari
p4161
aVshirt
p4162
aVstocking
p4163
aVbodice
p4164
aVjodhpurs
p4165
aVcap
p4166
aVreversible
p4167
aVgymslip
p4168
aVchiton
p4169
aVstrapless
p4170
aVoilskin
p4171
aVminiskirt
p4172
aVniqab
p4173
aVneckpiece
p4174
aVflatwork
p4175
aVpinner
p4176
aVtrousseau
p4177
aVdiaper
p4178
aVpolonaise
p4179
aVtitfer
p4180
aVraglan
p4181
aVsweater
p4182
aVcorset
p4183
aVformalwear
p4184
aVbiretta
p4185
aVmaxi
p4186
aVstomacher
p4187
aVporkpie
p4188
aVtights
p4189
aVyarmulke
p4190
aVburqa
p4191
aVdeerstalker
p4192
aVfurnishing
p4193
aVsnowsuit
p4194
aVdrawers
p4195
aVleotard
p4196
aVbandoleer
p4197
aVlederhosen
p4198
aVtoga
p4199
aVsunhat
p4200
aVapron
p4201
aVkirtle
p4202
aVcostume
p4203
aVcoverall
p4204
aVheadscarf
p4205
aVsuit
p4206
aVtabard
p4207
aVizar
p4208
aVrobe
p4209
aVouterwear
p4210
aVknitwear
p4211
aVjerkin
p4212
aVtiara
p4213
aVgarment
p4214
aVtrouser
p4215
aVbiggin
p4216
aVhosiery
p4217
aVascot
p4218
aVsilks
p4219
aVhat
p4220
aVsundress
p4221
aVnecktie
p4222
aVcapuchin
p4223
aVdirndl
p4224
aVtricorn
p4225
aVtrews
p4226
aVlingerie
p4227
aVskullcap
p4228
aVcamlet
p4229
aVdress
p4230
aVchador
p4231
aVbalaclava
p4232
aVsweatshirt
p4233
aValb
p4234
aVsalwar
p4235
aVtoque
p4236
aVundies
p4237
aVbeachwear
p4238
aVneckcloth
p4239
aVsock
p4240
aVcamisole
p4241
aVcagoule
p4242
aVshawl
p4243
aVlivery
p4244
aVfrock
p4245
aVvest
p4246
aVnegligee
p4247
aVpontifical
p4248
aVgreatcoat
p4249
aVturtleneck
p4250
aVpillbox
p4251
aVcoronet
p4252
aVberet
p4253
aVsportswear
p4254
aVmitten
p4255
aVpinstripe
p4256
aVfinery
p4257
aVbaldric
p4258
aVmantua
p4259
aVunderpants
p4260
aVsunbonnet
p4261
aVtoupee
p4262
aVsunsuit
p4263
aVmask
p4264
aVrebozo
p4265
aVhairpiece
p4266
aVperiwig
p4267
aVblouse
p4268
aVbeanie
p4269
aVbriefs
p4270
aVpajama
p4271
aVpelisse
p4272
aVwrap
p4273
aVweeds
p4274
aVmantilla
p4275
aVcassock
p4276
aVglengarry
p4277
aVdoublet
p4278
aVbvd
p4279
aVbreeches
p4280
aVsurtout
p4281
aVponcho
p4282
aVchemise
p4283
aVcaftan
p4284
aVcoat
p4285
aVoverall
p4286
aVnewmarket
p4287
aVkhimar
p4288
aVpetticoat
p4289
aVmending
p4290
aVbrassiere
p4291
aVmiddy
p4292
aVpeplos
p4293
aVcardigan
p4294
aVwimple
p4295
aVoverskirt
p4296
aVkurta
p4297
aVchasuble
p4298
aVtam
p4299
aVbloomers
p4300
aVcoatee
p4301
aVdolman
p4302
aVnightgown
p4303
aVboater
p4304
aVplaysuit
p4305
aVjacket
p4306
aVraincoat
p4307
aVgrizzle
p4308
aVneckerchief
p4309
aVnightshirt
p4310
aVsinglet
p4311
aVjean
p4312
aVhaik
p4313
aVsackcloth
p4314
aVmuff
p4315
aVregimentals
p4316
aVneckwear
p4317
aVattire
p4318
aVswimsuit
p4319
aVfedora
p4320
aVkilt
p4321
aVbonnet
p4322
aVspacesuit
p4323
aVscarf
p4324
aVkerchief
p4325
aVtopknot
p4326
aVmaillot
p4327
aVapparel
p4328
aVheaddress
p4329
aVpantyhose
p4330
aVblazer
p4331
aVkimono
p4332
aVcravat
p4333
aVlaundry
p4334
aVfootwear
p4335
aVbathrobe
p4336
asS'furniture'
p4337
(lp4338
Varmoire
p4339
aVwardrobe
p4340
aVminibar
p4341
aVbed
p4342
aVbooth
p4343
aVsickbed
p4344
aVworkbench
p4345
aVplaten
p4346
aVdaybed
p4347
aVwashstand
p4348
aVthrone
p4349
aVfitment
p4350
aVworktable
p4351
aVcradle
p4352
aVcredenza
p4353
aVdesk
p4354
aVrecliner
p4355
aVbanquette
p4356
aVchiffonier
p4357
aVpew
p4358
aVsheraton
p4359
aVdivan
p4360
aVcrib
p4361
aVhighchair
p4362
aVbuffet
p4363
aVsettle
p4364
aVarmchair
p4365
aVbookcase
p4366
aVbassinet
p4367
aVfauteuil
p4368
aVlectern
p4369
aVsofa
p4370
aVfootstool
p4371
aVcabinet
p4372
aVcathedra
p4373
aVcounter
p4374
aVchair
p4375
aVbedstead
p4376
aVstool
p4377
aValtar
p4378
aVrolodex
p4379
aVcarrycot
p4380
aVsectional
p4381
aVwheelchair
p4382
aVbench
p4383
asS'animals'
p4384
(lp4385
Vlambkin
p4386
aVswiftlet
p4387
aVoryx
p4388
aVperegrine
p4389
aVhawkmoth
p4390
aVpercheron
p4391
aVchimpanzee
p4392
aVasp
p4393
aVglowworm
p4394
aVibis
p4395
aVantbird
p4396
aVpumpkinseed
p4397
aVspider
p4398
aVfroghopper
p4399
aVfulmar
p4400
aVpeccary
p4401
aVflea
p4402
aVmagpie
p4403
aVmoa
p4404
aVshorebird
p4405
aVmealworm
p4406
aVarchiteuthis
p4407
aVhyena
p4408
aVgoral
p4409
aVlyrebird
p4410
aVflatworm
p4411
aVcygnet
p4412
aVtanager
p4413
aVbowerbird
p4414
aVstingray
p4415
aVporbeagle
p4416
aVrhinoceros
p4417
aVoarfish
p4418
aVschnauzer
p4419
aVchunga
p4420
aVcotswold
p4421
aVcooter
p4422
aVyellowlegs
p4423
aVhominoid
p4424
aVrorqual
p4425
aVacarus
p4426
aVibex
p4427
aVquagga
p4428
aVdamselfish
p4429
aVarchaeopteryx
p4430
aVpitta
p4431
aVearthworm
p4432
aVdrone
p4433
aVsteenbok
p4434
aVox
p4435
aVrabbit
p4436
aVfalcon
p4437
aVpintail
p4438
aVswine
p4439
aVpogge
p4440
aVphalarope
p4441
aVcormorant
p4442
aVsiskin
p4443
aVtinamou
p4444
aVcolt
p4445
aVhawfinch
p4446
aVredtail
p4447
aVkillifish
p4448
aVguereza
p4449
aVmarlin
p4450
aVantelope
p4451
aVtarpan
p4452
aVopenbill
p4453
aVlagomorph
p4454
aVquadruped
p4455
aVequine
p4456
aVowlet
p4457
aVcurrawong
p4458
aVlemming
p4459
aVgorgonian
p4460
aVpratincole
p4461
aVtabby
p4462
aVnumbat
p4463
aVorangutan
p4464
aVbonefish
p4465
aVmarmoset
p4466
aVwolfhound
p4467
aVmillipede
p4468
aVplover
p4469
aVungulate
p4470
aVdotterel
p4471
aVelasmobranch
p4472
aVarachnid
p4473
aVplesiosaur
p4474
aVpasserine
p4475
aVcoyote
p4476
aVsnipe
p4477
aVpiddock
p4478
aVinstar
p4479
aVcow
p4480
aVcoot
p4481
aVgoatfish
p4482
aVbooklouse
p4483
aVkatydid
p4484
aVcrab
p4485
aVlouse
p4486
aVgoldeneye
p4487
aVbrocket
p4488
aVmalamute
p4489
aVmyna
p4490
aVtitmouse
p4491
aVcockroach
p4492
aVmurre
p4493
aVmule
p4494
aVstonefly
p4495
aVgastrula
p4496
aVgoldcrest
p4497
aVpeahen
p4498
aVlion
p4499
aVmoke
p4500
aVserow
p4501
aVjaguarundi
p4502
aVstray
p4503
aVoyster
p4504
aVcopperhead
p4505
aVpaca
p4506
aVmale
p4507
aVtailorbird
p4508
aVguillemot
p4509
aVsmoothhound
p4510
aVchordate
p4511
aVcowbird
p4512
aVvireo
p4513
aVzebra
p4514
aVflathead
p4515
aVdragonet
p4516
aVcamel
p4517
aVeland
p4518
aVpterodactyl
p4519
aVpuppy
p4520
aVavocet
p4521
aVoystercatcher
p4522
aVosprey
p4523
aVbulldog
p4524
aVkrill
p4525
aVkiang
p4526
aVskipjack
p4527
aVskink
p4528
aVwaterfowl
p4529
aVridley
p4530
aVcorgi
p4531
aVverdin
p4532
aVbuzzard
p4533
aVwhitefly
p4534
aVpipit
p4535
aVvelociraptor
p4536
aVwaxwing
p4537
aVminnow
p4538
aVsteed
p4539
aVtoucan
p4540
aVclumber
p4541
aVrat
p4542
aVcoscoroba
p4543
aVmudskipper
p4544
aVbristletail
p4545
aVhadrosaur
p4546
aVratel
p4547
aVotterhound
p4548
aVthylacine
p4549
aVpigeon
p4550
aVbushbuck
p4551
aVeelpout
p4552
aVfirefly
p4553
aVmallard
p4554
aVyellowthroat
p4555
aVsilversides
p4556
aVopah
p4557
aVhorse
p4558
aVzoophyte
p4559
aVgoosander
p4560
aVpangolin
p4561
aVsawfly
p4562
aVamberjack
p4563
aVlechwe
p4564
aVcockchafer
p4565
aVcompsognathus
p4566
aVtardigrade
p4567
aVnightingale
p4568
aVgecko
p4569
aVkangaroo
p4570
aVdove
p4571
aVcutworm
p4572
aVveery
p4573
aVcaecilian
p4574
aVmockingbird
p4575
aVjird
p4576
aVbull
p4577
aVelephant
p4578
aVaphid
p4579
aVdoberman
p4580
aVladybug
p4581
aVsauropod
p4582
aVornithischian
p4583
aVwheatear
p4584
aVblastocyst
p4585
aVbowhead
p4586
aVoilbird
p4587
aVprosimian
p4588
aVstegosaur
p4589
aVtody
p4590
aVcoelophysis
p4591
aVbarbu
p4592
aVpika
p4593
aVoligochaete
p4594
aVbarbet
p4595
aVbluethroat
p4596
aVchrysalis
p4597
aVtunicate
p4598
aVmealybug
p4599
aVchaffinch
p4600
aVmerino
p4601
aVcrake
p4602
aVnilgai
p4603
aVterrapin
p4604
aVyoung
p4605
aVarcherfish
p4606
aVscoter
p4607
aVindri
p4608
aVtyrannosaur
p4609
aVmidge
p4610
aVsanderling
p4611
aVspaniel
p4612
aVhominid
p4613
aVrobin
p4614
aVmotmot
p4615
aVhousedog
p4616
aVweevil
p4617
aVrudd
p4618
aVbarnacle
p4619
aVcalf
p4620
aVtuatara
p4621
aVhartebeest
p4622
aVleveret
p4623
aVcrustacean
p4624
aVdowitcher
p4625
aVhookworm
p4626
aVmandrill
p4627
aVbear
p4628
aVephemeron
p4629
aVpacer
p4630
aVmaigre
p4631
aVcoucal
p4632
aVnewfoundland
p4633
aVretriever
p4634
aVplanarian
p4635
aVstork
p4636
aVthreadfin
p4637
aVtragopan
p4638
aVreeve
p4639
aVmorula
p4640
aVstayer
p4641
aVcondor
p4642
aVmonal
p4643
aVcheetah
p4644
aVporker
p4645
aVsolan
p4646
aVchough
p4647
aVornithopod
p4648
aVmarten
p4649
aVguenon
p4650
aVpronghorn
p4651
aVappaloosa
p4652
aVparrotfish
p4653
aVschipperke
p4654
aVbaya
p4655
aVnuthatch
p4656
aVokapi
p4657
aVlamprey
p4658
aVfilly
p4659
aVwapiti
p4660
aVpinworm
p4661
aVplatypus
p4662
aVescolar
p4663
aVbivalve
p4664
aVwhydah
p4665
aVstonechat
p4666
aVcapelin
p4667
aVcharacin
p4668
aVlumpsucker
p4669
aVshipworm
p4670
aVbrambling
p4671
aVwether
p4672
aVmonkey
p4673
aVclingfish
p4674
aVcanvasback
p4675
aVbullfrog
p4676
aVfrogfish
p4677
aVhellbender
p4678
aVcercaria
p4679
aVtaipan
p4680
aVcacique
p4681
aVgoat
p4682
aVbeetle
p4683
aVjennet
p4684
aVrazorback
p4685
aVbuckskin
p4686
aVterrier
p4687
aVsongbird
p4688
aVbryozoan
p4689
aVbowfin
p4690
aVbumblebee
p4691
aVgazelle
p4692
aVhexapod
p4693
aVpackhorse
p4694
aVhen
p4695
aVlocust
p4696
aVfieldfare
p4697
aVduck
p4698
aVremora
p4699
aVrabbitfish
p4700
aVcritter
p4701
aVcharger
p4702
aVhummingbird
p4703
aVvertebrate
p4704
aVteredo
p4705
aVbufo
p4706
aVhatchling
p4707
aVanopheline
p4708
aVgallinule
p4709
aVlimpkin
p4710
aVcero
p4711
aVburbot
p4712
aVlonghorn
p4713
aVwhiptail
p4714
aVparrot
p4715
aVagama
p4716
aVfilefish
p4717
aVcrossbill
p4718
aVchickadee
p4719
aVarmadillo
p4720
aVwhippet
p4721
aVsaluki
p4722
aVmoorhen
p4723
aVdorking
p4724
aVclam
p4725
aVconger
p4726
aVsandgrouse
p4727
aVmustang
p4728
aVbeagle
p4729
aVjackdaw
p4730
aVkilldeer
p4731
aVdiamondback
p4732
aVvulture
p4733
aVzebu
p4734
aVbee
p4735
aVllama
p4736
aVbedbug
p4737
aVichthyosaur
p4738
aVswan
p4739
aVpuffbird
p4740
aVpiglet
p4741
aVpetrel
p4742
aVrambouillet
p4743
aVkinkajou
p4744
aVlugworm
p4745
aVdace
p4746
aVexmoor
p4747
aVblackburn
p4748
aVbrant
p4749
aVhinny
p4750
aVsurfbird
p4751
aVspearfish
p4752
aVrazorbill
p4753
aVgaur
p4754
aVcaracara
p4755
aVlangur
p4756
aVmollusk
p4757
aVcrow
p4758
aVremount
p4759
aVcetacean
p4760
aVwireworm
p4761
aVcowrie
p4762
aVmarabou
p4763
aVporcupine
p4764
aVgyrfalcon
p4765
aVbufflehead
p4766
aVgalago
p4767
aVsparrow
p4768
aVplaty
p4769
aVayrshire
p4770
aVclydesdale
p4771
aVcichlid
p4772
aVloligo
p4773
aVjunco
p4774
aVmollie
p4775
aVhelminth
p4776
aVtamandua
p4777
aVsandpiper
p4778
aVfly
p4779
aVporpoise
p4780
aVtriceratops
p4781
aVhare
p4782
aVpipistrelle
p4783
aVwolf
p4784
aVsimian
p4785
aVauk
p4786
aVtussah
p4787
aVisopod
p4788
aVfeist
p4789
aVtetra
p4790
aVeider
p4791
aVlarva
p4792
aVpooch
p4793
aVserval
p4794
aVbluefish
p4795
aVdugong
p4796
aVani
p4797
aVstallion
p4798
aVconstrictor
p4799
aVraven
p4800
aVfinch
p4801
aVeft
p4802
aVthornbill
p4803
aVgar
p4804
aVpeafowl
p4805
aVyellowtail
p4806
aVguanaco
p4807
aVearwig
p4808
aVlamb
p4809
aVconch
p4810
aVhornbill
p4811
aVbird
p4812
aVbison
p4813
aVmetazoan
p4814
aVdrosophila
p4815
aVspawner
p4816
aVbluegill
p4817
aVrattlesnake
p4818
aVsilverfish
p4819
aVtigress
p4820
aVmalinois
p4821
aVeelworm
p4822
aVpup
p4823
aVcurassow
p4824
aVkookaburra
p4825
aVlapwing
p4826
aVbug
p4827
aVolm
p4828
aVocelot
p4829
aVmongoose
p4830
aVlacewing
p4831
aVblackbuck
p4832
aVabalone
p4833
aVgelding
p4834
aVmouse
p4835
aVichneumon
p4836
aVmammoth
p4837
aVspringbok
p4838
aVqueen
p4839
aVbullhead
p4840
aVconey
p4841
aVlioness
p4842
aVjerboa
p4843
aVbullock
p4844
aVacarine
p4845
aVcobra
p4846
aVtitanosaur
p4847
aVangelfish
p4848
aVsambar
p4849
aVpapillon
p4850
aVfinback
p4851
aVcricket
p4852
aVpuku
p4853
aVkudu
p4854
aVstoat
p4855
aVcavy
p4856
aVrottweiler
p4857
aVandrena
p4858
aVwrasse
p4859
aVmargay
p4860
aVfrog
p4861
aVscaup
p4862
aVtrilobite
p4863
aVwarthog
p4864
aVfrogmouth
p4865
aVmammal
p4866
aVcollie
p4867
aVpollinator
p4868
aVgoby
p4869
aVhamster
p4870
aVgander
p4871
aVmouflon
p4872
aVmeadowlark
p4873
aVlory
p4874
aVbutcherbird
p4875
aVblackfly
p4876
aVdeer
p4877
aVtench
p4878
aVaxolotl
p4879
aVtoucanet
p4880
aVpatas
p4881
aVbobwhite
p4882
aVbabirusa
p4883
aVjawfish
p4884
aVvervet
p4885
aVmamo
p4886
aVmamba
p4887
aVpython
p4888
aVcattle
p4889
aVredshank
p4890
aVarthropod
p4891
aVchick
p4892
aVliger
p4893
aVtrumpetfish
p4894
aVloach
p4895
aVelk
p4896
aVsturgeon
p4897
aVstocker
p4898
aVdamselfly
p4899
aVovenbird
p4900
aVsmew
p4901
aVstonefish
p4902
aVprancer
p4903
aVpembroke
p4904
aVweka
p4905
aVmaggot
p4906
aVsawfish
p4907
aVaffenpinscher
p4908
aVpraya
p4909
aVnematode
p4910
aVcephalopod
p4911
aVavadavat
p4912
aVvizsla
p4913
aVliza
p4914
aVtriggerfish
p4915
aVcassowary
p4916
aVdun
p4917
aVstablemate
p4918
aVhind
p4919
aVstaghound
p4920
aVeggar
p4921
aVlorikeet
p4922
aVcharolais
p4923
aVtadpole
p4924
aVgurnard
p4925
aVcapercaillie
p4926
aVpalomino
p4927
aVmarmot
p4928
aVaccentor
p4929
aVturkey
p4930
aVjackrabbit
p4931
aVbustard
p4932
aVshelduck
p4933
aVgroundfish
p4934
aVagouti
p4935
aVsidewinder
p4936
aVmako
p4937
aVmuntjac
p4938
aVtortoise
p4939
aVpyrrhuloxia
p4940
aVnatterjack
p4941
aVsalamander
p4942
aVbovid
p4943
aVserotine
p4944
aVnestling
p4945
aVkob
p4946
aVsalp
p4947
aVredpoll
p4948
aVcockerel
p4949
aVrhesus
p4950
aVlongwool
p4951
aVape
p4952
aVgemsbok
p4953
aVpachyderm
p4954
aVadelie
p4955
aVarmyworm
p4956
aVmarsupial
p4957
aVfish
p4958
aVelapid
p4959
aVflamingo
p4960
aVsnail
p4961
aVtarsier
p4962
aVbandicoot
p4963
aVgnu
p4964
aVmoorcock
p4965
aVpinscher
p4966
aVgreyhound
p4967
aVfoal
p4968
aVcougar
p4969
aVbloodhound
p4970
aVmonotreme
p4971
aVbulbul
p4972
aVwillet
p4973
aVjackal
p4974
aVskylark
p4975
aVstirk
p4976
aVracehorse
p4977
aVcarnivore
p4978
aVmanatee
p4979
aVseabird
p4980
aVweimaraner
p4981
aVblowfly
p4982
aVeaglet
p4983
aVsnook
p4984
aVleatherjacket
p4985
aVspoonbill
p4986
aVhawk
p4987
aVkrait
p4988
aVsheep
p4989
aVpony
p4990
aViguanodon
p4991
aVcheviot
p4992
aVleech
p4993
aVdaphnia
p4994
aVsiamang
p4995
aVeagle
p4996
aVguan
p4997
aVsaurian
p4998
aVshoebill
p4999
aVbittern
p5000
aVgannet
p5001
aVfeline
p5002
aVcentipede
p5003
aVbrachiopod
p5004
aVserin
p5005
aVsnake
p5006
aVtusker
p5007
aVcoypu
p5008
aVpolychaete
p5009
aVimpala
p5010
aVpelican
p5011
aVlizard
p5012
aVpinche
p5013
aVoctopod
p5014
aVbasset
p5015
aVorpington
p5016
aVpiculet
p5017
aVhagfish
p5018
aVborzoi
p5019
aVpewee
p5020
aVplacental
p5021
aVgerbil
p5022
aVtarpon
p5023
aVinvertebrate
p5024
aVabyssinian
p5025
aVbaboon
p5026
aVteg
p5027
aVdingo
p5028
aVgrebe
p5029
aVlionfish
p5030
aVwaterbuck
p5031
aVshark
p5032
aVharvestman
p5033
aVgosling
p5034
aVmoray
p5035
aVpet
p5036
aVbantam
p5037
aVbinturong
p5038
aVwalrus
p5039
aVgreylag
p5040
aVmastodon
p5041
aVlemur
p5042
aVchachalaca
p5043
aVtowhee
p5044
aVcat
p5045
aVhoneycreeper
p5046
aVbigeye
p5047
aVriflebird
p5048
aVlivestock
p5049
aVkeeshond
p5050
aVwidgeon
p5051
aVboxfish
p5052
aVleafhopper
p5053
aVreptile
p5054
aVgoshawk
p5055
aVsalmonid
p5056
aVbudgerigar
p5057
aVsalmon
p5058
aVpenguin
p5059
aVhogfish
p5060
aVwhinchat
p5061
aVbobcat
p5062
aVhoneybee
p5063
aVhydrozoan
p5064
aVyellowfin
p5065
aVcyprinid
p5066
aVbrill
p5067
aVchub
p5068
aVpterosaur
p5069
aVcopepod
p5070
aVgoose
p5071
aVtrogon
p5072
aVjaguar
p5073
aVanaconda
p5074
aVtayra
p5075
aVhippopotamus
p5076
aVaustralopithecine
p5077
aVowl
p5078
aVtenrec
p5079
aVcolobus
p5080
aVhoatzin
p5081
aVstarling
p5082
aVmoth
p5083
aVcoati
p5084
aVmangabey
p5085
aVdhole
p5086
aVgiant
p5087
aVaardwolf
p5088
aVptarmigan
p5089
aVichthyosaurus
p5090
aVdeinonychus
p5091
aVblastula
p5092
aVtoadfish
p5093
aVpalfrey
p5094
aVfox
p5095
aVmouser
p5096
aVpyralid
p5097
aVscad
p5098
aVdiplodocus
p5099
aVwoodlouse
p5100
aVegret
p5101
aVswordtail
p5102
aVbot
p5103
aVmantis
p5104
aVcoelenterate
p5105
aVascidian
p5106
aVroadrunner
p5107
aVmeerkat
p5108
aVbriard
p5109
aVrodent
p5110
aVabortus
p5111
aVhousefly
p5112
aVgoldfish
p5113
aVkea
p5114
aVfoxhound
p5115
aVfingerling
p5116
aVgreenshank
p5117
aVgodwit
p5118
aVredbone
p5119
aVpupa
p5120
aVhoopoe
p5121
aVtouraco
p5122
aVhereford
p5123
aVgamecock
p5124
aVcurlew
p5125
aVviper
p5126
aVcaiman
p5127
aVtiercel
p5128
aVdog
p5129
aVpug
p5130
aVkingfisher
p5131
aVshearwater
p5132
aVtamarin
p5133
aVpochard
p5134
aVgadoid
p5135
aVauklet
p5136
aVcankerworm
p5137
aVrotifer
p5138
aVscorpionfish
p5139
aVgastropod
p5140
aVtermite
p5141
aVpoorwill
p5142
aVdominique
p5143
aVcuttlefish
p5144
aVgreenfly
p5145
aVfemale
p5146
aVtapeworm
p5147
aVsow
p5148
aVephemerid
p5149
aVbatfish
p5150
aVsquirrel
p5151
aVbovine
p5152
aVblackpoll
p5153
aVlargemouth
p5154
aVgrosbeak
p5155
aVant
p5156
aVcarthorse
p5157
aVlapdog
p5158
aVsteeplechaser
p5159
aVnarwhal
p5160
aVsilkworm
p5161
aVmosquito
p5162
aVsilverback
p5163
aVdachshund
p5164
aVcotinga
p5165
aVgrison
p5166
aVmare
p5167
aVspitz
p5168
aVbruin
p5169
aVreynard
p5170
aVchipmunk
p5171
aVmacaw
p5172
aVgrasshopper
p5173
aVpipefish
p5174
aVairedale
p5175
aVjacamar
p5176
aVstarfish
p5177
aVloir
p5178
aVcicada
p5179
aVfeeder
p5180
aVechidna
p5181
aVcoelacanth
p5182
aVtetrapod
p5183
aVpomfret
p5184
aVgnatcatcher
p5185
aVbloodworm
p5186
aVmacaque
p5187
aVworm
p5188
aVunderwing
p5189
aVshanny
p5190
aVkittiwake
p5191
aVtakin
p5192
aVctenophore
p5193
aVcockatoo
p5194
aVgrizzly
p5195
aVsculpin
p5196
aVaardvark
p5197
aVwombat
p5198
aVbeluga
p5199
aVechinoderm
p5200
aVchelonian
p5201
aVtern
p5202
aVpuffin
p5203
aVmegapode
p5204
aVschistosome
p5205
aVbutterfly
p5206
aVhornet
p5207
aVbroodmare
p5208
aVroebuck
p5209
aVwirehair
p5210
aVgroundhog
p5211
aVechinococcus
p5212
aVbobolink
p5213
aVagua
p5214
aVshovelhead
p5215
aVwoodworm
p5216
aVpeacock
p5217
aVwallaby
p5218
aVpheasant
p5219
aVhyrax
p5220
aVsurgeonfish
p5221
aVwoodcock
p5222
aVmoonfish
p5223
aVgreenbottle
p5224
aVbronco
p5225
aVguppy
p5226
aVcaracal
p5227
aVparakeet
p5228
aVdragonfly
p5229
aVgiraffe
p5230
aVcaterpillar
p5231
aVdabchick
p5232
aVormer
p5233
aVannelid
p5234
aVcodling
p5235
aVbellbird
p5236
aVjaeger
p5237
aVdinosaur
p5238
aVpekinese
p5239
aVherbivore
p5240
aVshrike
p5241
aVheifer
p5242
aVboatbill
p5243
aVzooplankton
p5244
aVgarganey
p5245
aVmargate
p5246
aVdormouse
p5247
aVbarracuda
p5248
aVcivet
p5249
aVruminant
p5250
aVgrubby
p5251
aVmurine
p5252
aVsapsucker
p5253
aVpoodle
p5254
aVbollworm
p5255
aVblackcock
p5256
aVpinto
p5257
aVburro
p5258
aVbotfly
p5259
aVscarab
p5260
aVortolan
p5261
aVcur
p5262
aVwagtail
p5263
aVcrinoid
p5264
aVtapir
p5265
aVvole
p5266
aVtheropod
p5267
aVargentine
p5268
aVcorncrake
p5269
aVamphipod
p5270
aVaddax
p5271
aVkitten
p5272
aVskua
p5273
aVbushtit
p5274
aVfetus
p5275
aVcrocodile
p5276
aVinsectivore
p5277
aVkoala
p5278
aVpithecanthropus
p5279
aVthrips
p5280
aVcaribou
p5281
aVhairstreak
p5282
aVcapybara
p5283
aVgnat
p5284
aVkinglet
p5285
aVbiped
p5286
aVhound
p5287
aVmerganser
p5288
aVblenny
p5289
aVcochin
p5290
aVmastiff
p5291
aVmyriapod
p5292
aVbeef
p5293
aVnewt
p5294
aVlancelet
p5295
aVpomeranian
p5296
aVratite
p5297
aVwoodpecker
p5298
aVstickleback
p5299
aVsaiga
p5300
aVinsect
p5301
aVfriesian
p5302
aVlungfish
p5303
aVchacma
p5304
aVmayfly
p5305
aVbasenji
p5306
aVwhippoorwill
p5307
aVgerenuk
p5308
aVbat
p5309
aVkingbird
p5310
aVturnstone
p5311
aVgorilla
p5312
aVappenzeller
p5313
aVbanteng
p5314
aVsaurischian
p5315
aVern
p5316
asS'science'
p5317
(lp5318
Vpharmacology
p5319
aVforestry
p5320
aVimmunopathology
p5321
aVichthyology
p5322
aVvolcanology
p5323
aVposology
p5324
aVchemistry
p5325
aVphotochemistry
p5326
aVosteology
p5327
aVbiophysics
p5328
aVcytology
p5329
aVbacteriology
p5330
aVpathology
p5331
aVgynecology
p5332
aVhistology
p5333
aVgeopolitics
p5334
aVimmunology
p5335
aVmechanics
p5336
aVpaleoecology
p5337
aVgeriatrics
p5338
aVtopology
p5339
aVhydrography
p5340
aVquadratics
p5341
aVmineralogy
p5342
aVgeology
p5343
aVcrystallography
p5344
aVgrammar
p5345
aVgastroenterology
p5346
aVdecomposition
p5347
aVneonatology
p5348
aVbiochemistry
p5349
aVcryogenics
p5350
aVgenomics
p5351
aVethnology
p5352
aVelectrostatics
p5353
aVtriangulation
p5354
aVfemtochemistry
p5355
aVrheumatology
p5356
aVethology
p5357
aVmacroeconomics
p5358
aVsociology
p5359
aVstratigraphy
p5360
aVpsychopharmacology
p5361
aVendodontics
p5362
aVmetrology
p5363
aVmicroeconomics
p5364
aVallergology
p5365
aVpsephology
p5366
aVphonetics
p5367
aVcryptanalysis
p5368
aVneurology
p5369
aVelectrochemistry
p5370
aVastrometry
p5371
aVlimnology
p5372
aVneurolinguistics
p5373
aVcosmography
p5374
aVperinatology
p5375
aVcraniology
p5376
aVspeleology
p5377
aVbiogeography
p5378
aVproteomics
p5379
aVpsychotherapy
p5380
aVhydrodynamics
p5381
aVtrigonometry
p5382
aVgeophysics
p5383
aVdentistry
p5384
aVdeixis
p5385
aVphrenology
p5386
aVastrodynamics
p5387
aVneuropsychiatry
p5388
aVgeography
p5389
aVphysics
p5390
aVhydrostatics
p5391
aVorthopedics
p5392
aVphycology
p5393
aVimmunochemistry
p5394
aVoncology
p5395
aVassyriology
p5396
aVbiomedicine
p5397
aVcriminology
p5398
aVmicrobiology
p5399
aVmedicine
p5400
aVdemography
p5401
aVtoxicology
p5402
aVradiology
p5403
aVgeometry
p5404
aVcivics
p5405
aVperiodontics
p5406
aVpharmacogenetics
p5407
aVarchitectonics
p5408
aVstatistics
p5409
aVdermatology
p5410
aVpodiatry
p5411
aVnephrology
p5412
aVotology
p5413
aVrealpolitik
p5414
aVdietetics
p5415
aVprotozoology
p5416
aVholography
p5417
aVthermochemistry
p5418
aVurology
p5419
aVstatics
p5420
aVeconomics
p5421
aVeugenics
p5422
aVlinguistics
p5423
aVthermodynamics
p5424
aVacoustics
p5425
aVcladistics
p5426
aVastrophysics
p5427
aVophthalmology
p5428
aVpenology
p5429
aVpharmacokinetics
p5430
aVoptics
p5431
aVpaleontology
p5432
aVsemantics
p5433
aVprimatology
p5434
aVarcheology
p5435
aVpragmatics
p5436
aVanthropology
p5437
aVritualism
p5438
aVsilviculture
p5439
aVepidemiology
p5440
aVtherapeutics
p5441
aVhemodynamics
p5442
aVgenetics
p5443
aVmetamathematics
p5444
aVteratology
p5445
aVprosthodontics
p5446
aVpharmacy
p5447
aVharmonics
p5448
aVphysiology
p5449
aVpaleopathology
p5450
aVproxemics
p5451
aVbiotechnology
p5452
aVpetrology
p5453
aVpaleobiology
p5454
aVmammalogy
p5455
aVmetallurgy
p5456
aVphonology
p5457
aVornithology
p5458
aVreflexology
p5459
aVpediatrics
p5460
aVsociometry
p5461
aVcryobiology
p5462
aVconchology
p5463
aVanesthesiology
p5464
aVepigraphy
p5465
aVmorphology
p5466
aVneurobiology
p5467
aValgebra
p5468
aVneuroscience
p5469
aVangiology
p5470
aVelectronics
p5471
aVneuroanatomy
p5472
aVentomology
p5473
aVendocrinology
p5474
aVarithmetic
p5475
aVpaleography
p5476
aVclimatology
p5477
aVanatomy
p5478
aVpneumatics
p5479
aVmagnetohydrodynamics
p5480
aVstructuralism
p5481
aVkinesiology
p5482
aVexobiology
p5483
aVsociolinguistics
p5484
aVorthodontics
p5485
aVmacrobiotics
p5486
aVastronomy
p5487
aVcardiology
p5488
aVvirology
p5489
aVpaleoanthropology
p5490
aVpsychiatry
p5491
aVbehaviorism
p5492
aVphytochemistry
p5493
aVaeronautics
p5494
aVpsychometry
p5495
aVcytogenetics
p5496
aVradiochemistry
p5497
aVethnography
p5498
aVegyptology
p5499
aVeconometrics
p5500
aVserology
p5501
aVmycology
p5502
aVoceanography
p5503
aVseismology
p5504
aVneurophysiology
p5505
aVaudiology
p5506
aVnosology
p5507
aVbiometrics
p5508
aVpaleoclimatology
p5509
aVtraumatology
p5510
aVdynamics
p5511
aVcybernetics
p5512
aVbiosystematics
p5513
aVembryology
p5514
aVmathematics
p5515
aVgeodesy
p5516
aVsystematics
p5517
aVmicroelectronics
p5518
aVbioremediation
p5519
aVsociobiology
p5520
aVsurgery
p5521
aVherpetology
p5522
aVrheology
p5523
aVstrategics
p5524
aVhydrology
p5525
aVbiology
p5526
aVobstetrics
p5527
aVavionics
p5528
aVagronomy
p5529
aVgeochemistry
p5530
aVmicropaleontology
p5531
aVprotohistory
p5532
aVkinematics
p5533
aVradiobiology
p5534
aVprosthetics
p5535
aVcryonics
p5536
aVhematology
p5537
aVmalacology
p5538
aVpsychophysics
p5539
aVenzymology
p5540
aVpsycholinguistics
p5541
aVpsychology
p5542
aVvirtuosity
p5543
aVbravura
p5544
asS'weapon'
p5545
(lp5546
Vgat
p5547
aVbren
p5548
aVspear
p5549
aVfusil
p5550
aVdart
p5551
aVcrossbow
p5552
aVkris
p5553
aVsmoothbore
p5554
aVantiaircraft
p5555
aVblunderbuss
p5556
aVepee
p5557
aVdirk
p5558
aVsaber
p5559
aVluger
p5560
aVkylie
p5561
aVponiard
p5562
aVdumdum
p5563
aVhalberd
p5564
aVrifle
p5565
aVgun
p5566
aVclaymore
p5567
aVbb
p5568
aVfalchion
p5569
aVlongbow
p5570
aVmatchlock
p5571
aVshotgun
p5572
aVautoloader
p5573
aVbotulin
p5574
aVshiv
p5575
aVsarin
p5576
aVsword
p5577
aVbioweapon
p5578
aVuzi
p5579
aVscimitar
p5580
aVrevolver
p5581
aVspandau
p5582
aVmace
p5583
aVkirpan
p5584
aVmachete
p5585
aVexocet
p5586
aVstiletto
p5587
aVfirearm
p5588
aVspitball
p5589
aVflintlock
p5590
aVassegai
p5591
aVbayonet
p5592
aVdagger
p5593
aVflamethrower
p5594
aVaflatoxin
p5595
aVgrapeshot
p5596
aVmusket
p5597
aVbroadsword
p5598
aVcarbine
p5599
aVtrident
p5600
aVtabun
p5601
aVboomerang
p5602
aVmissile
p5603
aVkalashnikov
p5604
aVderringer
p5605
aVtomahawk
p5606
aVrapier
p5607
aVpistol
p5608
aVcannonball
p5609
aVsoman
p5610
aVprojectile
p5611
aVbullet
p5612
aVarquebus
p5613
asS'metal'
p5614
(lp5615
Vantimony
p5616
aVberyllium
p5617
aVtitanium
p5618
aVamericium
p5619
aVhafnium
p5620
aVindium
p5621
aVcobalt
p5622
aVcesium
p5623
aVniobium
p5624
aVpotassium
p5625
aVmanganese
p5626
aVstrontium
p5627
aVcalcium
p5628
aVholmium
p5629
aVtin
p5630
aVrhodium
p5631
aVuranium
p5632
aVrubidium
p5633
aVchromium
p5634
aVeuropium
p5635
aVruthenium
p5636
aVplatinum
p5637
aValuminum
p5638
aVtechnetium
p5639
aViron
p5640
aVneptunium
p5641
aVbaryta
p5642
aVyttrium
p5643
aVrhenium
p5644
aVterbium
p5645
aVneodymium
p5646
aVtungsten
p5647
aVosmium
p5648
aVcurium
p5649
aVsamarium
p5650
aVspelter
p5651
aVlithium
p5652
aVytterbium
p5653
aVcadmium
p5654
aVvanadium
p5655
aVmolybdenum
p5656
aVgallium
p5657
aVzinc
p5658
aVsilver
p5659
aVchrome
p5660
aVcerium
p5661
aVdysprosium
p5662
aVsodium
p5663
aVcopper
p5664
aVbarium
p5665
aViridium
p5666
aVscandium
p5667
aVpolonium
p5668
aVthorium
p5669
aValum
p5670
aVmercury
p5671
aVlanthanum
p5672
aVtantalum
p5673
aVthallium
p5674
aVgadolinium
p5675
aVerbium
p5676
aVradium
p5677
aVnickel
p5678
aVzirconium
p5679
aVbismuth
p5680
aVpalladium
p5681
aVmagnesium
p5682
aVfrancium
p5683
aVstellite
p5684
aVinvar
p5685
aVbrass
p5686
aVinconel
p5687
aVsteel
p5688
aValnico
p5689
aVamalgam
p5690
aVduralumin
p5691
aVpinchbeck
p5692
aVbronze
p5693
aVconstantan
p5694
aVgunmetal
p5695
aVpermalloy
p5696
aVcupronickel
p5697
aVnichrome
p5698
aVpewter
p5699
aVormolu
p5700
aVsolder
p5701
aVelectrum
p5702
aVlatten
p5703
asS'dog'
p5704
(lp5705
Vwirehair
p5706
aVpuppy
p5707
aVbriard
p5708
aVbeagle
p5709
aVbloodhound
p5710
aVpug
p5711
aVclumber
p5712
aVnewfoundland
p5713
aVretriever
p5714
aVlapdog
p5715
aVaffenpinscher
p5716
aVterrier
p5717
aVkeeshond
p5718
aVvizsla
p5719
aVdachshund
p5720
aVweimaraner
p5721
aVdoberman
p5722
aVfeist
p5723
aVpapillon
p5724
aVfoxhound
p5725
aVbulldog
p5726
aVstaghound
p5727
aVredbone
p5728
aVpooch
p5729
aVspitz
p5730
aVcollie
p5731
aVwolfhound
p5732
aVrottweiler
p5733
aVhound
p5734
aVcorgi
p5735
aVpekinese
p5736
aVmastiff
p5737
aVschipperke
p5738
aVpembroke
p5739
aVairedale
p5740
aVpomeranian
p5741
aVschnauzer
p5742
aVotterhound
p5743
aVmalinois
p5744
aVmalamute
p5745
aVbasset
p5746
aVborzoi
p5747
aVpoodle
p5748
aVbasenji
p5749
aVspaniel
p5750
aVwhippet
p5751
aVsaluki
p5752
aVpinscher
p5753
aVcur
p5754
aVappenzeller
p5755
aVhousedog
p5756
aVgreyhound
p5757
aVperisher
p5758
asS'drug'
p5759
(lp5760
Vperphenazine
p5761
aVfluvastatin
p5762
aVgriseofulvin
p5763
aVcocktail
p5764
aVrofecoxib
p5765
aVverapamil
p5766
aVantimalarial
p5767
aVmercaptopurine
p5768
aVmebendazole
p5769
aVmeperidine
p5770
aVsuppressant
p5771
aVimipramine
p5772
aVisoproterenol
p5773
aVpulque
p5774
aVratafia
p5775
aVthiabendazole
p5776
aVliniment
p5777
aVarsenical
p5778
aVstout
p5779
aVzidovudine
p5780
aVlorazepam
p5781
aVcognac
p5782
aVhallucinogen
p5783
aVhalothane
p5784
aVnefazodone
p5785
aVgrappa
p5786
aVcefuroxime
p5787
aVsauterne
p5788
aVchloroform
p5789
aVpenicillin
p5790
aVtolbutamide
p5791
aVisoniazid
p5792
aVampicillin
p5793
aVmefloquine
p5794
aVsaquinavir
p5795
aVmetheglin
p5796
aVnabumetone
p5797
aVnaproxen
p5798
aVoktoberfest
p5799
aVhooch
p5800
aVmetoprolol
p5801
aVale
p5802
aVhaloperidol
p5803
aVtheophylline
p5804
aVsuppository
p5805
aVchlortetracycline
p5806
aVmargarita
p5807
aVgimlet
p5808
aVlamivudine
p5809
aVdiazepam
p5810
aVantimetabolite
p5811
aVrum
p5812
aVcelecoxib
p5813
aVswizzle
p5814
aVbuspirone
p5815
aVlovastatin
p5816
aVplonk
p5817
aVsildenafil
p5818
aVliebfraumilch
p5819
aVtriazolam
p5820
aVtrazodone
p5821
aVvodka
p5822
aVamphotericin
p5823
aVantiseptic
p5824
aVamobarbital
p5825
aVcefotaxime
p5826
aVbeer
p5827
aVmartini
p5828
aVemetic
p5829
aVkanamycin
p5830
aVgrog
p5831
aVreserpine
p5832
aVamoxicillin
p5833
aVenflurane
p5834
aVaphrodisiac
p5835
aVsuccinylcholine
p5836
aVkat
p5837
aVvaldecoxib
p5838
aValoes
p5839
aVvouvray
p5840
aVpharmaceutical
p5841
aVethosuximide
p5842
aVnaltrexone
p5843
aVhashish
p5844
aVastringent
p5845
aVsedative
p5846
aVcolchicine
p5847
aVactinomycin
p5848
aVphentolamine
p5849
aVrifampin
p5850
aVnortriptyline
p5851
aVmethacholine
p5852
aVketamine
p5853
aVwassail
p5854
aVanisette
p5855
aVmedoc
p5856
aVceftazidime
p5857
aVtobramycin
p5858
aVglipizide
p5859
aVgentamicin
p5860
aVacyclovir
p5861
aVopiate
p5862
aVbronchodilator
p5863
aVyquem
p5864
aVkahlua
p5865
aVritonavir
p5866
aVvermifuge
p5867
aVanticonvulsant
p5868
aVthioridazine
p5869
aVaminophylline
p5870
aVliquor
p5871
aVgin
p5872
aVatropine
p5873
aVenalapril
p5874
aVmannitol
p5875
aVneomycin
p5876
aVamphetamine
p5877
aVkava
p5878
aVprobenecid
p5879
aVgemfibrozil
p5880
aVapplejack
p5881
aVkirsch
p5882
aVorphenadrine
p5883
aVsidecar
p5884
aVbacitracin
p5885
aVimmunosuppressant
p5886
aVvasodilator
p5887
aVcimetidine
p5888
aVpravastatin
p5889
aVchlorhexidine
p5890
aVmescaline
p5891
aVpropoxyphene
p5892
aVarmagnac
p5893
aVmetformin
p5894
aVcodeine
p5895
aVsour
p5896
aVmaraschino
p5897
aVslivovitz
p5898
aVpentazocine
p5899
aVindapamide
p5900
aVallopurinol
p5901
aVrickey
p5902
aVlincomycin
p5903
aVnitrofurantoin
p5904
aVreboxetine
p5905
aVactifed
p5906
aVparegoric
p5907
aVgabapentin
p5908
aVpsilocybin
p5909
aVpenicillamine
p5910
aVprochlorperazine
p5911
aVmarsala
p5912
aVfentanyl
p5913
aVdoxycycline
p5914
aVhydrochlorothiazide
p5915
aVstinger
p5916
aVetanercept
p5917
aVphenolphthalein
p5918
aVmydriatic
p5919
aVbotanical
p5920
aVtemazepam
p5921
aVsulfadiazine
p5922
aVbenzodiazepine
p5923
aVfamotidine
p5924
aVasparaginase
p5925
aVdiltiazem
p5926
aVatenolol
p5927
aVfluoxetine
p5928
aVoxazepam
p5929
aVnevirapine
p5930
aVmethyldopa
p5931
aVointment
p5932
aVacoustic
p5933
aVsling
p5934
aVwine
p5935
aVeggnog
p5936
aVprocarbazine
p5937
aVdaiquiri
p5938
aVneostigmine
p5939
aVsalicylate
p5940
aVisosorbide
p5941
aVflurbiprofen
p5942
aVpalliative
p5943
aVsucralfate
p5944
aVsambuca
p5945
aVpolymyxin
p5946
aVabsinth
p5947
aVtricyclic
p5948
aVdrambuie
p5949
aVfluorouracil
p5950
aVbrew
p5951
aVacetaminophen
p5952
aVthrombolytic
p5953
aVbenzedrine
p5954
aVchloramphenicol
p5955
aVdiaphoretic
p5956
aVcocaine
p5957
aVvardenafil
p5958
aVmidazolam
p5959
aVthiopental
p5960
aVterazosin
p5961
aVfluphenazine
p5962
aVexpectorant
p5963
aVantispasmodic
p5964
aVisoflurane
p5965
aVcerivastatin
p5966
aVphenelzine
p5967
aVamaretto
p5968
aVdesipramine
p5969
aVphenylbutazone
p5970
aVbenzocaine
p5971
aVtadalafil
p5972
aVtokay
p5973
aVsoave
p5974
aVnaloxone
p5975
aVdelavirdine
p5976
aVatorvastatin
p5977
aVclomipramine
p5978
aVflecainide
p5979
aVibuprofen
p5980
aVcigar
p5981
aVfirewater
p5982
aVcyclopropane
p5983
aVjulep
p5984
aVrelaxant
p5985
aVcigarette
p5986
aVretsina
p5987
aVprocyclidine
p5988
aVbarbiturate
p5989
aVdecongestant
p5990
aVanticholinesterase
p5991
aVantibacterial
p5992
aVvarietal
p5993
aVdapsone
p5994
aVbhang
p5995
aVcyproheptadine
p5996
aVsherry
p5997
aVschnapps
p5998
aVantiemetic
p5999
aVphencyclidine
p6000
aVchloroquine
p6001
aVsimvastatin
p6002
aVketorolac
p6003
aVnarcotic
p6004
aVramipril
p6005
aVmoselle
p6006
aVchianti
p6007
aVcalvados
p6008
aVoxytetracycline
p6009
aVetodolac
p6010
aVchlorambucil
p6011
aVmaleate
p6012
aVranitidine
p6013
aVhighball
p6014
aVbitters
p6015
aVnelfinavir
p6016
aVantineoplastic
p6017
aValendronate
p6018
aVtetrahydrocannabinol
p6019
aVmethicillin
p6020
aVazathioprine
p6021
aVabortifacient
p6022
aVvintage
p6023
aVindomethacin
p6024
aVribavirin
p6025
aVdose
p6026
aVclozapine
p6027
aVgeneric
p6028
aVamontillado
p6029
aVnitrazepam
p6030
aValcohol
p6031
aVlaudanum
p6032
aVcephalexin
p6033
aVprocaine
p6034
aVchartreuse
p6035
aVquinacrine
p6036
aVnystatin
p6037
aVclonidine
p6038
aVchlordiazepoxide
p6039
aVhydroxychloroquine
p6040
aVbrandy
p6041
aVbeaujolais
p6042
aVdimenhydrinate
p6043
aVlidocaine
p6044
aVamitriptyline
p6045
aVaperitif
p6046
aVerythromycin
p6047
aVciprofloxacin
p6048
aVpentoxifylline
p6049
aVquinidine
p6050
aVheparin
p6051
aVkummel
p6052
aVmelphalan
p6053
aVnifedipine
p6054
aVthimerosal
p6055
aVpiroxicam
p6056
aVantihistamine
p6057
aVrubefacient
p6058
aVmalmsey
p6059
aVdisulfiram
p6060
aVpurgative
p6061
aVvermouth
p6062
aVmanzanilla
p6063
aVipecac
p6064
aVmontrachet
p6065
aVdiphenhydramine
p6066
aVdubonnet
p6067
aVmethadone
p6068
aVlisinopril
p6069
aVantiarrhythmic
p6070
aVapomorphine
p6071
aVcabernet
p6072
aVbock
p6073
aVradiopharmaceutical
p6074
aVantibiotic
p6075
aVspironolactone
p6076
aVsynergist
p6077
aVoxytocic
p6078
aVcaptopril
p6079
aVthalidomide
p6080
aVhydralazine
p6081
aVbitter
p6082
aVchampagne
p6083
aVantiviral
p6084
aVaspirin
p6085
aVvancomycin
p6086
aVprazosin
p6087
aVspectinomycin
p6088
aVlaxative
p6089
aVpapaverine
p6090
aVmexiletine
p6091
aVprednisone
p6092
aVmethylphenidate
p6093
aVhydantoin
p6094
aVceftriaxone
p6095
aVantidepressant
p6096
aVpiperazine
p6097
aVleflunomide
p6098
aVindinavir
p6099
aVmetronidazole
p6100
aVantidiabetic
p6101
aVanesthetic
p6102
aVwhiskey
p6103
aVpernod
p6104
aVshag
p6105
aVheroin
p6106
aVchrism
p6107
aVpilsner
p6108
aVplacebo
p6109
aVketoprofen
p6110
aVantidiuretic
p6111
aVtranquilizer
p6112
aVantipyretic
p6113
aVcyclobenzaprine
p6114
aVcephalosporin
p6115
aVmethamphetamine
p6116
aVanticoagulant
p6117
aVsulfonylurea
p6118
aVclomiphene
p6119
aVprednisolone
p6120
aVarrack
p6121
aVnadolol
p6122
aVchloramine
p6123
aVlomotil
p6124
aVquinine
p6125
aVliqueur
p6126
aVpropanolol
p6127
aVnegus
p6128
aVouzo
p6129
aVanalgesic
p6130
aVdronabinol
p6131
aVmethotrexate
p6132
aVpoteen
p6133
aVisocarboxazid
p6134
aVgalliano
p6135
aVopium
p6136
aVlatakia
p6137
aVdexamethasone
p6138
aVesmolol
p6139
aVantitussive
p6140
aVcarminative
p6141
aVprimidone
p6142
aVsertraline
p6143
aVvinblastine
p6144
aVcigarillo
p6145
aVdemulcent
p6146
aVinterferon
p6147
aVaquavit
p6148
aVspritzer
p6149
aVwarfarin
p6150
aVpreventive
p6151
aVvincristine
p6152
aVchlorpromazine
p6153
aVarnica
p6154
aVdoxorubicin
p6155
aValprazolam
p6156
aVmithramycin
p6157
aVsoporific
p6158
aVthiazide
p6159
aVdoxazosin
p6160
aVtetracycline
p6161
aVamiodarone
p6162
aVantidote
p6163
aVpromethazine
p6164
aVpastis
p6165
aVdoxepin
p6166
aValbuterol
p6167
aVclaro
p6168
aVnitroglycerin
p6169
aVrioja
p6170
aVtranylcypromine
p6171
aVazithromycin
p6172
aVminocycline
p6173
aVrefill
p6174
aVcheroot
p6175
aVantihypertensive
p6176
aVgramicidin
p6177
aVsulindac
p6178
aVanticholinergic
p6179
aVtobacco
p6180
aVlacing
p6181
aVephedrine
p6182
aVpimozide
p6183
aVminoxidil
p6184
aVmarc
p6185
aVmorphine
p6186
aVcarvedilol
p6187
aVstreptomycin
p6188
aVfurosemide
p6189
aVtequila
p6190
aVsudorific
p6191
aVmitomycin
p6192
aVlabetalol
p6193
aVtimolol
p6194
aVlomustine
p6195
aVantiprotozoal
p6196
asS'scientist'
p6197
(lp6198
Valgebraist
p6199
aVtaxonomist
p6200
aVhydrologist
p6201
aVichthyologist
p6202
aVbiochemist
p6203
aVgeologist
p6204
aVgeometer
p6205
aVherpetologist
p6206
aVchemist
p6207
aVexperimenter
p6208
aVoceanographer
p6209
aVanthropologist
p6210
aVgeneticist
p6211
aVpaleontologist
p6212
aVlexicographer
p6213
aVegyptologist
p6214
aVphonologist
p6215
aVstatistician
p6216
aVepidemiologist
p6217
aVlepidopterist
p6218
aVparapsychologist
p6219
aVdemographer
p6220
aVpsephologist
p6221
aVneurobiologist
p6222
aVpsychologist
p6223
aVgeophysicist
p6224
aVeconometrician
p6225
aVethnographer
p6226
aVarcheologist
p6227
aVphysicist
p6228
aVmonetarist
p6229
aVbiologist
p6230
aVsociolinguist
p6231
aVtownes
p6232
aVecologist
p6233
aVimmunologist
p6234
aVsemanticist
p6235
aVethnologist
p6236
aVcytologist
p6237
aVboffin
p6238
aVpsycholinguist
p6239
aVbotanist
p6240
aVornithologist
p6241
aVphysiologist
p6242
aVpropagator
p6243
aVentomologist
p6244
aVsociologist
p6245
aVvirologist
p6246
aVseismologist
p6247
aVgrammarian
p6248
aVmineralogist
p6249
aVethologist
p6250
aVmicrobiologist
p6251
aVarithmetician
p6252
aVzoologist
p6253
aVtoxicologist
p6254
aVhypnotist
p6255
aVfieldworker
p6256
aVvivisectionist
p6257
aVacoustician
p6258
aVastrophysicist
p6259
aVcosmologist
p6260
aVcosmographer
p6261
aVmicroscopist
p6262
aVlinguist
p6263
aVeconomist
p6264
aVneuroscientist
p6265
aVphonetician
p6266
aVmathematician
p6267
aVmacroeconomist
p6268
aVbiophysicist
p6269
aVbacteriologist
p6270
aVcytogeneticist
p6271
aVetymologist
p6272
aVbehaviorist
p6273
aVastronomer
p6274
aVmycologist
p6275
asS'entertainer'
p6276
(lp6277
Vheartthrob
p6278
aVtrombonist
p6279
aVballerina
p6280
aVbugler
p6281
aVviolist
p6282
aVactress
p6283
aVorganist
p6284
aVhummer
p6285
aVventriloquist
p6286
aVharpsichordist
p6287
aVstrongman
p6288
aVmusician
p6289
aVbandsman
p6290
aVkachina
p6291
aVpercussionist
p6292
aVpleaser
p6293
aValto
p6294
aVringmaster
p6295
aVstarlet
p6296
aVcoloratura
p6297
aVaccompanist
p6298
aVbaritone
p6299
aVguitarist
p6300
aVinterlocutor
p6301
aVmime
p6302
aVmagician
p6303
aVjuggler
p6304
aVflutist
p6305
aVsatirist
p6306
aVdancer
p6307
aVgeek
p6308
aVparodist
p6309
aVchoirboy
p6310
aVpunster
p6311
aVclarinetist
p6312
aVhoofer
p6313
aVyodeller
p6314
aVsavoyard
p6315
aVunderstudy
p6316
aVcompere
p6317
aVheavy
p6318
aVdanseur
p6319
aVcontralto
p6320
aVbassist
p6321
aVbassoonist
p6322
aVbombshell
p6323
aVcomedian
p6324
aVactor
p6325
aVreenactor
p6326
aVsaxophonist
p6327
aVpuppeteer
p6328
aVpianist
p6329
aVingenue
p6330
aVviolinist
p6331
aVjoker
p6332
aVrecitalist
p6333
aVtoastmaster
p6334
aVartiste
p6335
aVcountertenor
p6336
aVheadliner
p6337
aVbusker
p6338
aVsoloist
p6339
aVvaudevillian
p6340
aVperformer
p6341
aVharpist
p6342
aVrapper
p6343
aVsinger
p6344
aVcrooner
p6345
aVharlequin
p6346
aVcomedienne
p6347
aVwarbler
p6348
aVwag
p6349
aVcellist
p6350
aVoboist
p6351
aVdrummer
p6352
aVkeyboardist
p6353
aVcastrato
p6354
aVmadrigalist
p6355
aVharmonizer
p6356
aVjester
p6357
aVsoprano
p6358
aVzany
p6359
aVexecutant
p6360
aVescapologist
p6361
aVchorister
p6362
aVcaricaturist
p6363
aVpiper
p6364
aVtrumpeter
p6365
aVsongstress
p6366
aVbarnstormer
p6367
aVhumorist
p6368
aVaccordionist
p6369
asS'mammal'
p6370
(lp6371
Vorangutan
p6372
aVlioness
p6373
aVayrshire
p6374
aVbear
p6375
aVmouse
p6376
aVichneumon
p6377
aVmammoth
p6378
aVpacer
p6379
aVmustang
p6380
aVbabirusa
p6381
aVnewfoundland
p6382
aVretriever
p6383
aVcotswold
p6384
aVchimpanzee
p6385
aVvizsla
p6386
aVwolfhound
p6387
aVjerboa
p6388
aVbullock
p6389
aVmeerkat
p6390
aVrodent
p6391
aVrhinoceros
p6392
aVgemsbok
p6393
aVsambar
p6394
aVpapillon
p6395
aVporker
p6396
aVfoxhound
p6397
aVbeagle
p6398
aVotterhound
p6399
aVborzoi
p6400
aVredbone
p6401
aVgelding
p6402
aVcow
p6403
aVpeccary
p6404
aVmarten
p6405
aVpuku
p6406
aVguenon
p6407
aVkudu
p6408
aVpronghorn
p6409
aVappaloosa
p6410
aVbloodhound
p6411
aVstoat
p6412
aVcavy
p6413
aVrottweiler
p6414
aVmargay
p6415
aVschipperke
p6416
aVhyena
p6417
aVgoral
p6418
aVantelope
p6419
aVcharger
p6420
aVdog
p6421
aVcollie
p6422
aVhamster
p6423
aVpug
p6424
aVmouflon
p6425
aVbasset
p6426
aVpatas
p6427
aVbushbuck
p6428
aVplatypus
p6429
aVhound
p6430
aVnarwhal
p6431
aVtayra
p6432
aVtamarin
p6433
aVwapiti
p6434
aVhominoid
p6435
aVcattle
p6436
aVbovine
p6437
aVguanaco
p6438
aVjennet
p6439
aVquagga
p6440
aVwether
p6441
aVmonkey
p6442
aVloir
p6443
aVlonghorn
p6444
aVsteenbok
p6445
aVelk
p6446
aVox
p6447
aVrabbit
p6448
aVllama
p6449
aVsquirrel
p6450
aVoryx
p6451
aVswine
p6452
aVprancer
p6453
aVrorqual
p6454
aVpembroke
p6455
aVgoat
p6456
aVcolobus
p6457
aVcarthorse
p6458
aVlapdog
p6459
aVaffenpinscher
p6460
aVguereza
p6461
aVsteeplechaser
p6462
aVterrier
p6463
aVdachshund
p6464
aVequine
p6465
aVdoberman
p6466
aVlemming
p6467
aVfriesian
p6468
aVgrison
p6469
aVmare
p6470
aVstablemate
p6471
aVgazelle
p6472
aVtabby
p6473
aVnumbat
p6474
aVstaghound
p6475
aVspitz
p6476
aVpackhorse
p6477
aVcharolais
p6478
aVbruin
p6479
aVreynard
p6480
aVrazorback
p6481
aVmarmoset
p6482
aVclumber
p6483
aVchipmunk
p6484
aVpalomino
p6485
aVmarmot
p6486
aVmalamute
p6487
aVvervet
p6488
aVpomeranian
p6489
aVibex
p6490
aVungulate
p6491
aVjackrabbit
p6492
aVbroodmare
p6493
aVcoyote
p6494
aVlagomorph
p6495
aVcheviot
p6496
aVagouti
p6497
aVmuntjac
p6498
aVechidna
p6499
aVmoke
p6500
aVserow
p6501
aVmanatee
p6502
aVkob
p6503
aVcivet
p6504
aVbrocket
p6505
aVmacaque
p6506
aVape
p6507
aVtakin
p6508
aVpachyderm
p6509
aVbaboon
p6510
aVlechwe
p6511
aVgrizzly
p6512
aVspringbok
p6513
aVmule
p6514
aVmarsupial
p6515
aVhare
p6516
aVarmadillo
p6517
aVwombat
p6518
aVsaluki
p6519
aVthylacine
p6520
aVporcupine
p6521
aVfinback
p6522
aVgorilla
p6523
aVtarsier
p6524
aVbandicoot
p6525
aVhominid
p6526
aVaardwolf
p6527
aVlion
p6528
aVpinscher
p6529
aVgreyhound
p6530
aVroebuck
p6531
aVwirehair
p6532
aVgroundhog
p6533
aVcougar
p6534
aVbriard
p6535
aVcheetah
p6536
aVjaguarundi
p6537
aVpaca
p6538
aVmonotreme
p6539
aVzebu
p6540
aVokapi
p6541
aVserotine
p6542
aVzebra
p6543
aVjackal
p6544
aVwallaby
p6545
aVstirk
p6546
aVhyrax
p6547
aVcamel
p6548
aVeland
p6549
aVcarnivore
p6550
aVweimaraner
p6551
aVpony
p6552
aVtenrec
p6553
aVbronco
p6554
aVsheep
p6555
aVhartebeest
p6556
aVbulldog
p6557
aVcaracal
p6558
aVsow
p6559
aVkiang
p6560
aVkinkajou
p6561
aVhereford
p6562
aVgiraffe
p6563
aVwhippet
p6564
aVsiamang
p6565
aVaddax
p6566
aVrambouillet
p6567
aVgerenuk
p6568
aVexmoor
p6569
aVairedale
p6570
aVfeline
p6571
aVcorgi
p6572
aVpekinese
p6573
aVtusker
p6574
aVrhesus
p6575
aVcoypu
p6576
aVimpala
p6577
aVgaur
p6578
aVsteed
p6579
aVlangur
p6580
aVrat
p6581
aVlongwool
p6582
aVcetacean
p6583
aVratel
p6584
aVdormouse
p6585
aVpinche
p6586
aVruminant
p6587
aVmurine
p6588
aVbasenji
p6589
aVgalago
p6590
aVpoodle
p6591
aVliger
p6592
aVjaguar
p6593
aVcat
p6594
aVpinto
p6595
aVplacental
p6596
aVburro
p6597
aVgerbil
p6598
aVhorse
p6599
aVabyssinian
p6600
aVclydesdale
p6601
aVcoati
p6602
aVdingo
p6603
aVpangolin
p6604
aVbovid
p6605
aVcur
p6606
aVtamandua
p6607
aVtapir
p6608
aVporpoise
p6609
aVvole
p6610
aVpuppy
p6611
aVhinny
p6612
aVkangaroo
p6613
aVbinturong
p6614
aVpipistrelle
p6615
aVwolf
p6616
aVwalrus
p6617
aVmastodon
p6618
aVlemur
p6619
aVracehorse
p6620
aVsimian
p6621
aVschnauzer
p6622
aVpalfrey
p6623
aVjird
p6624
aVbull
p6625
aVlivestock
p6626
aVinsectivore
p6627
aVkeeshond
p6628
aVkoala
p6629
aVelephant
p6630
aVwarthog
p6631
aVpithecanthropus
p6632
aVaardvark
p6633
aVcaribou
p6634
aVleveret
p6635
aVtarpan
p6636
aVmandrill
p6637
aVcapybara
p6638
aVpooch
p6639
aVserval
p6640
aVdugong
p6641
aVbowhead
p6642
aVbobcat
p6643
aVstallion
p6644
aVremount
p6645
aVmastiff
p6646
aVbeef
p6647
aVprosimian
p6648
aVbuckskin
p6649
aVfeist
p6650
aVpercheron
p6651
aVpika
p6652
aVgnu
p6653
aVbison
p6654
aVheifer
p6655
aVsaiga
p6656
aVhippopotamus
p6657
aVaustralopithecine
p6658
aVwaterbuck
p6659
aVmerino
p6660
aVtigress
p6661
aVmalinois
p6662
aVchacma
p6663
aVnilgai
p6664
aVdun
p6665
aVindri
p6666
aVsilverback
p6667
aVdeer
p6668
aVbat
p6669
aVmangabey
p6670
aVspaniel
p6671
aVdhole
p6672
aVocelot
p6673
aVmongoose
p6674
aVhousedog
p6675
aVblackbuck
p6676
aVappenzeller
p6677
aVbanteng
p6678
aVfox
p6679
aVmouser
p6680
asS'fauna'
p6681
(lp6682
Vavifauna
p6683
aVlambkin
p6684
aVswiftlet
p6685
aVoryx
p6686
aVperegrine
p6687
aVhawkmoth
p6688
aVpercheron
p6689
aVchimpanzee
p6690
aVasp
p6691
aVglowworm
p6692
aVibis
p6693
aVantbird
p6694
aVpumpkinseed
p6695
aVspider
p6696
aVfroghopper
p6697
aVfulmar
p6698
aVpeccary
p6699
aVflea
p6700
aVmagpie
p6701
aVmoa
p6702
aVshorebird
p6703
aVmealworm
p6704
aVarchiteuthis
p6705
aVhyena
p6706
aVgoral
p6707
aVlyrebird
p6708
aVflatworm
p6709
aVcygnet
p6710
aVtanager
p6711
aVbowerbird
p6712
aVstingray
p6713
aVporbeagle
p6714
aVrhinoceros
p6715
aVoarfish
p6716
aVschnauzer
p6717
aVchunga
p6718
aVcotswold
p6719
aVcooter
p6720
aVyellowlegs
p6721
aVhominoid
p6722
aVrorqual
p6723
aVacarus
p6724
aVibex
p6725
aVquagga
p6726
aVdamselfish
p6727
aVarchaeopteryx
p6728
aVpitta
p6729
aVearthworm
p6730
aVdrone
p6731
aVsteenbok
p6732
aVox
p6733
aVrabbit
p6734
aVfalcon
p6735
aVpintail
p6736
aVswine
p6737
aVpogge
p6738
aVphalarope
p6739
aVcormorant
p6740
aVsiskin
p6741
aVtinamou
p6742
aVcolt
p6743
aVhawfinch
p6744
aVredtail
p6745
aVkillifish
p6746
aVguereza
p6747
aVmarlin
p6748
aVantelope
p6749
aVtarpan
p6750
aVopenbill
p6751
aVlagomorph
p6752
aVquadruped
p6753
aVequine
p6754
aVowlet
p6755
aVcurrawong
p6756
aVlemming
p6757
aVgorgonian
p6758
aVpratincole
p6759
aVtabby
p6760
aVnumbat
p6761
aVorangutan
p6762
aVbonefish
p6763
aVmarmoset
p6764
aVwolfhound
p6765
aVmillipede
p6766
aVplover
p6767
aVungulate
p6768
aVdotterel
p6769
aVelasmobranch
p6770
aVarachnid
p6771
aVplesiosaur
p6772
aVpasserine
p6773
aVcoyote
p6774
aVsnipe
p6775
aVpiddock
p6776
aVinstar
p6777
aVcow
p6778
aVcoot
p6779
aVgoatfish
p6780
aVbooklouse
p6781
aVkatydid
p6782
aVcrab
p6783
aVlouse
p6784
aVgoldeneye
p6785
aVbrocket
p6786
aVmalamute
p6787
aVmyna
p6788
aVtitmouse
p6789
aVcockroach
p6790
aVmurre
p6791
aVmule
p6792
aVstonefly
p6793
aVgastrula
p6794
aVgoldcrest
p6795
aVpeahen
p6796
aVlion
p6797
aVmoke
p6798
aVserow
p6799
aVjaguarundi
p6800
aVstray
p6801
aVoyster
p6802
aVcopperhead
p6803
aVpaca
p6804
aVmale
p6805
aVtailorbird
p6806
aVguillemot
p6807
aVsmoothhound
p6808
aVchordate
p6809
aVcowbird
p6810
aVvireo
p6811
aVzebra
p6812
aVflathead
p6813
aVdragonet
p6814
aVcamel
p6815
aVeland
p6816
aVpterodactyl
p6817
aVpuppy
p6818
aVavocet
p6819
aVoystercatcher
p6820
aVosprey
p6821
aVbulldog
p6822
aVkrill
p6823
aVkiang
p6824
aVskipjack
p6825
aVskink
p6826
aVwaterfowl
p6827
aVridley
p6828
aVcorgi
p6829
aVverdin
p6830
aVbuzzard
p6831
aVwhitefly
p6832
aVpipit
p6833
aVvelociraptor
p6834
aVwaxwing
p6835
aVminnow
p6836
aVsteed
p6837
aVtoucan
p6838
aVclumber
p6839
aVrat
p6840
aVcoscoroba
p6841
aVmudskipper
p6842
aVbristletail
p6843
aVhadrosaur
p6844
aVratel
p6845
aVotterhound
p6846
aVthylacine
p6847
aVpigeon
p6848
aVbushbuck
p6849
aVeelpout
p6850
aVfirefly
p6851
aVmallard
p6852
aVyellowthroat
p6853
aVsilversides
p6854
aVopah
p6855
aVhorse
p6856
aVzoophyte
p6857
aVgoosander
p6858
aVpangolin
p6859
aVsawfly
p6860
aVamberjack
p6861
aVlechwe
p6862
aVcockchafer
p6863
aVcompsognathus
p6864
aVtardigrade
p6865
aVnightingale
p6866
aVgecko
p6867
aVkangaroo
p6868
aVdove
p6869
aVcutworm
p6870
aVveery
p6871
aVcaecilian
p6872
aVmockingbird
p6873
aVjird
p6874
aVbull
p6875
aVelephant
p6876
aVaphid
p6877
aVdoberman
p6878
aVladybug
p6879
aVsauropod
p6880
aVornithischian
p6881
aVwheatear
p6882
aVblastocyst
p6883
aVbowhead
p6884
aVoilbird
p6885
aVprosimian
p6886
aVstegosaur
p6887
aVtody
p6888
aVcoelophysis
p6889
aVbarbu
p6890
aVpika
p6891
aVoligochaete
p6892
aVbarbet
p6893
aVbluethroat
p6894
aVchrysalis
p6895
aVtunicate
p6896
aVmealybug
p6897
aVchaffinch
p6898
aVmerino
p6899
aVcrake
p6900
aVnilgai
p6901
aVterrapin
p6902
aVyoung
p6903
aVarcherfish
p6904
aVscoter
p6905
aVindri
p6906
aVtyrannosaur
p6907
aVmidge
p6908
aVsanderling
p6909
aVspaniel
p6910
aVhominid
p6911
aVrobin
p6912
aVmotmot
p6913
aVhousedog
p6914
aVweevil
p6915
aVrudd
p6916
aVbarnacle
p6917
aVcalf
p6918
aVtuatara
p6919
aVhartebeest
p6920
aVleveret
p6921
aVcrustacean
p6922
aVdowitcher
p6923
aVhookworm
p6924
aVmandrill
p6925
aVbear
p6926
aVephemeron
p6927
aVpacer
p6928
aVmaigre
p6929
aVcoucal
p6930
aVnewfoundland
p6931
aVretriever
p6932
aVplanarian
p6933
aVstork
p6934
aVthreadfin
p6935
aVtragopan
p6936
aVreeve
p6937
aVmorula
p6938
aVstayer
p6939
aVcondor
p6940
aVmonal
p6941
aVcheetah
p6942
aVporker
p6943
aVsolan
p6944
aVchough
p6945
aVornithopod
p6946
aVmarten
p6947
aVguenon
p6948
aVpronghorn
p6949
aVappaloosa
p6950
aVparrotfish
p6951
aVschipperke
p6952
aVbaya
p6953
aVnuthatch
p6954
aVokapi
p6955
aVlamprey
p6956
aVfilly
p6957
aVwapiti
p6958
aVpinworm
p6959
aVplatypus
p6960
aVescolar
p6961
aVbivalve
p6962
aVwhydah
p6963
aVstonechat
p6964
aVcapelin
p6965
aVcharacin
p6966
aVlumpsucker
p6967
aVshipworm
p6968
aVbrambling
p6969
aVwether
p6970
aVmonkey
p6971
aVclingfish
p6972
aVcanvasback
p6973
aVbullfrog
p6974
aVfrogfish
p6975
aVhellbender
p6976
aVcercaria
p6977
aVtaipan
p6978
aVcacique
p6979
aVgoat
p6980
aVbeetle
p6981
aVjennet
p6982
aVrazorback
p6983
aVbuckskin
p6984
aVterrier
p6985
aVsongbird
p6986
aVbryozoan
p6987
aVbowfin
p6988
aVbumblebee
p6989
aVgazelle
p6990
aVhexapod
p6991
aVpackhorse
p6992
aVhen
p6993
aVlocust
p6994
aVfieldfare
p6995
aVduck
p6996
aVremora
p6997
aVrabbitfish
p6998
aVcritter
p6999
aVcharger
p7000
aVhummingbird
p7001
aVvertebrate
p7002
aVteredo
p7003
aVbufo
p7004
aVhatchling
p7005
aVanopheline
p7006
aVgallinule
p7007
aVlimpkin
p7008
aVcero
p7009
aVburbot
p7010
aVlonghorn
p7011
aVwhiptail
p7012
aVparrot
p7013
aVagama
p7014
aVfilefish
p7015
aVcrossbill
p7016
aVchickadee
p7017
aVarmadillo
p7018
aVwhippet
p7019
aVsaluki
p7020
aVmoorhen
p7021
aVdorking
p7022
aVclam
p7023
aVconger
p7024
aVsandgrouse
p7025
aVmustang
p7026
aVbeagle
p7027
aVjackdaw
p7028
aVkilldeer
p7029
aVdiamondback
p7030
aVvulture
p7031
aVzebu
p7032
aVbee
p7033
aVllama
p7034
aVbedbug
p7035
aVichthyosaur
p7036
aVswan
p7037
aVpuffbird
p7038
aVpiglet
p7039
aVpetrel
p7040
aVrambouillet
p7041
aVkinkajou
p7042
aVlugworm
p7043
aVdace
p7044
aVexmoor
p7045
aVblackburn
p7046
aVbrant
p7047
aVhinny
p7048
aVsurfbird
p7049
aVspearfish
p7050
aVrazorbill
p7051
aVgaur
p7052
aVcaracara
p7053
aVlangur
p7054
aVmollusk
p7055
aVcrow
p7056
aVremount
p7057
aVcetacean
p7058
aVwireworm
p7059
aVcowrie
p7060
aVmarabou
p7061
aVporcupine
p7062
aVgyrfalcon
p7063
aVbufflehead
p7064
aVgalago
p7065
aVsparrow
p7066
aVplaty
p7067
aVayrshire
p7068
aVclydesdale
p7069
aVcichlid
p7070
aVloligo
p7071
aVjunco
p7072
aVmollie
p7073
aVhelminth
p7074
aVtamandua
p7075
aVsandpiper
p7076
aVfly
p7077
aVporpoise
p7078
aVtriceratops
p7079
aVhare
p7080
aVpipistrelle
p7081
aVwolf
p7082
aVsimian
p7083
aVauk
p7084
aVtussah
p7085
aVisopod
p7086
aVfeist
p7087
aVtetra
p7088
aVeider
p7089
aVlarva
p7090
aVpooch
p7091
aVserval
p7092
aVbluefish
p7093
aVdugong
p7094
aVani
p7095
aVstallion
p7096
aVconstrictor
p7097
aVraven
p7098
aVfinch
p7099
aVeft
p7100
aVthornbill
p7101
aVgar
p7102
aVpeafowl
p7103
aVyellowtail
p7104
aVguanaco
p7105
aVearwig
p7106
aVlamb
p7107
aVconch
p7108
aVhornbill
p7109
aVbird
p7110
aVbison
p7111
aVmetazoan
p7112
aVdrosophila
p7113
aVspawner
p7114
aVbluegill
p7115
aVrattlesnake
p7116
aVsilverfish
p7117
aVtigress
p7118
aVmalinois
p7119
aVeelworm
p7120
aVpup
p7121
aVcurassow
p7122
aVkookaburra
p7123
aVlapwing
p7124
aVbug
p7125
aVolm
p7126
aVocelot
p7127
aVmongoose
p7128
aVlacewing
p7129
aVblackbuck
p7130
aVabalone
p7131
aVgelding
p7132
aVmouse
p7133
aVichneumon
p7134
aVmammoth
p7135
aVspringbok
p7136
aVqueen
p7137
aVbullhead
p7138
aVconey
p7139
aVlioness
p7140
aVjerboa
p7141
aVbullock
p7142
aVacarine
p7143
aVcobra
p7144
aVtitanosaur
p7145
aVangelfish
p7146
aVsambar
p7147
aVpapillon
p7148
aVfinback
p7149
aVcricket
p7150
aVpuku
p7151
aVkudu
p7152
aVstoat
p7153
aVcavy
p7154
aVrottweiler
p7155
aVandrena
p7156
aVwrasse
p7157
aVmargay
p7158
aVfrog
p7159
aVscaup
p7160
aVtrilobite
p7161
aVwarthog
p7162
aVfrogmouth
p7163
aVmammal
p7164
aVcollie
p7165
aVpollinator
p7166
aVgoby
p7167
aVhamster
p7168
aVgander
p7169
aVmouflon
p7170
aVmeadowlark
p7171
aVlory
p7172
aVbutcherbird
p7173
aVblackfly
p7174
aVdeer
p7175
aVtench
p7176
aVaxolotl
p7177
aVtoucanet
p7178
aVpatas
p7179
aVbobwhite
p7180
aVbabirusa
p7181
aVjawfish
p7182
aVvervet
p7183
aVmamo
p7184
aVmamba
p7185
aVpython
p7186
aVcattle
p7187
aVredshank
p7188
aVarthropod
p7189
aVchick
p7190
aVliger
p7191
aVtrumpetfish
p7192
aVloach
p7193
aVelk
p7194
aVsturgeon
p7195
aVstocker
p7196
aVdamselfly
p7197
aVovenbird
p7198
aVsmew
p7199
aVstonefish
p7200
aVprancer
p7201
aVpembroke
p7202
aVweka
p7203
aVmaggot
p7204
aVsawfish
p7205
aVaffenpinscher
p7206
aVpraya
p7207
aVnematode
p7208
aVcephalopod
p7209
aVavadavat
p7210
aVvizsla
p7211
aVliza
p7212
aVtriggerfish
p7213
aVcassowary
p7214
aVdun
p7215
aVstablemate
p7216
aVhind
p7217
aVstaghound
p7218
aVeggar
p7219
aVlorikeet
p7220
aVcharolais
p7221
aVtadpole
p7222
aVgurnard
p7223
aVcapercaillie
p7224
aVpalomino
p7225
aVmarmot
p7226
aVaccentor
p7227
aVturkey
p7228
aVjackrabbit
p7229
aVbustard
p7230
aVshelduck
p7231
aVgroundfish
p7232
aVagouti
p7233
aVsidewinder
p7234
aVmako
p7235
aVmuntjac
p7236
aVtortoise
p7237
aVpyrrhuloxia
p7238
aVnatterjack
p7239
aVsalamander
p7240
aVbovid
p7241
aVserotine
p7242
aVnestling
p7243
aVkob
p7244
aVsalp
p7245
aVredpoll
p7246
aVcockerel
p7247
aVrhesus
p7248
aVlongwool
p7249
aVape
p7250
aVgemsbok
p7251
aVpachyderm
p7252
aVadelie
p7253
aVarmyworm
p7254
aVmarsupial
p7255
aVfish
p7256
aVelapid
p7257
aVflamingo
p7258
aVsnail
p7259
aVtarsier
p7260
aVbandicoot
p7261
aVgnu
p7262
aVmoorcock
p7263
aVpinscher
p7264
aVgreyhound
p7265
aVfoal
p7266
aVcougar
p7267
aVbloodhound
p7268
aVmonotreme
p7269
aVbulbul
p7270
aVwillet
p7271
aVjackal
p7272
aVskylark
p7273
aVstirk
p7274
aVracehorse
p7275
aVcarnivore
p7276
aVmanatee
p7277
aVseabird
p7278
aVweimaraner
p7279
aVblowfly
p7280
aVeaglet
p7281
aVsnook
p7282
aVleatherjacket
p7283
aVspoonbill
p7284
aVhawk
p7285
aVkrait
p7286
aVsheep
p7287
aVpony
p7288
aViguanodon
p7289
aVcheviot
p7290
aVleech
p7291
aVdaphnia
p7292
aVsiamang
p7293
aVeagle
p7294
aVguan
p7295
aVsaurian
p7296
aVshoebill
p7297
aVbittern
p7298
aVgannet
p7299
aVfeline
p7300
aVcentipede
p7301
aVbrachiopod
p7302
aVserin
p7303
aVsnake
p7304
aVtusker
p7305
aVcoypu
p7306
aVpolychaete
p7307
aVimpala
p7308
aVpelican
p7309
aVlizard
p7310
aVpinche
p7311
aVoctopod
p7312
aVbasset
p7313
aVorpington
p7314
aVpiculet
p7315
aVhagfish
p7316
aVborzoi
p7317
aVpewee
p7318
aVplacental
p7319
aVgerbil
p7320
aVtarpon
p7321
aVinvertebrate
p7322
aVabyssinian
p7323
aVbaboon
p7324
aVteg
p7325
aVdingo
p7326
aVgrebe
p7327
aVlionfish
p7328
aVwaterbuck
p7329
aVshark
p7330
aVharvestman
p7331
aVgosling
p7332
aVmoray
p7333
aVpet
p7334
aVbantam
p7335
aVbinturong
p7336
aVwalrus
p7337
aVgreylag
p7338
aVmastodon
p7339
aVlemur
p7340
aVchachalaca
p7341
aVtowhee
p7342
aVcat
p7343
aVhoneycreeper
p7344
aVbigeye
p7345
aVriflebird
p7346
aVlivestock
p7347
aVkeeshond
p7348
aVwidgeon
p7349
aVboxfish
p7350
aVleafhopper
p7351
aVreptile
p7352
aVgoshawk
p7353
aVsalmonid
p7354
aVbudgerigar
p7355
aVsalmon
p7356
aVpenguin
p7357
aVhogfish
p7358
aVwhinchat
p7359
aVbobcat
p7360
aVhoneybee
p7361
aVhydrozoan
p7362
aVyellowfin
p7363
aVcyprinid
p7364
aVbrill
p7365
aVchub
p7366
aVpterosaur
p7367
aVcopepod
p7368
aVgoose
p7369
aVtrogon
p7370
aVjaguar
p7371
aVanaconda
p7372
aVtayra
p7373
aVhippopotamus
p7374
aVaustralopithecine
p7375
aVowl
p7376
aVtenrec
p7377
aVcolobus
p7378
aVhoatzin
p7379
aVstarling
p7380
aVmoth
p7381
aVcoati
p7382
aVmangabey
p7383
aVdhole
p7384
aVgiant
p7385
aVaardwolf
p7386
aVptarmigan
p7387
aVichthyosaurus
p7388
aVdeinonychus
p7389
aVblastula
p7390
aVtoadfish
p7391
aVpalfrey
p7392
aVfox
p7393
aVmouser
p7394
aVpyralid
p7395
aVscad
p7396
aVdiplodocus
p7397
aVwoodlouse
p7398
aVegret
p7399
aVswordtail
p7400
aVbot
p7401
aVmantis
p7402
aVcoelenterate
p7403
aVascidian
p7404
aVroadrunner
p7405
aVmeerkat
p7406
aVbriard
p7407
aVrodent
p7408
aVabortus
p7409
aVhousefly
p7410
aVgoldfish
p7411
aVkea
p7412
aVfoxhound
p7413
aVfingerling
p7414
aVgreenshank
p7415
aVgodwit
p7416
aVredbone
p7417
aVpupa
p7418
aVhoopoe
p7419
aVtouraco
p7420
aVhereford
p7421
aVgamecock
p7422
aVcurlew
p7423
aVviper
p7424
aVcaiman
p7425
aVtiercel
p7426
aVdog
p7427
aVpug
p7428
aVkingfisher
p7429
aVshearwater
p7430
aVtamarin
p7431
aVpochard
p7432
aVgadoid
p7433
aVauklet
p7434
aVcankerworm
p7435
aVrotifer
p7436
aVscorpionfish
p7437
aVgastropod
p7438
aVtermite
p7439
aVpoorwill
p7440
aVdominique
p7441
aVcuttlefish
p7442
aVgreenfly
p7443
aVfemale
p7444
aVtapeworm
p7445
aVsow
p7446
aVephemerid
p7447
aVbatfish
p7448
aVsquirrel
p7449
aVbovine
p7450
aVblackpoll
p7451
aVlargemouth
p7452
aVgrosbeak
p7453
aVant
p7454
aVcarthorse
p7455
aVlapdog
p7456
aVsteeplechaser
p7457
aVnarwhal
p7458
aVsilkworm
p7459
aVmosquito
p7460
aVsilverback
p7461
aVdachshund
p7462
aVcotinga
p7463
aVgrison
p7464
aVmare
p7465
aVspitz
p7466
aVbruin
p7467
aVreynard
p7468
aVchipmunk
p7469
aVmacaw
p7470
aVgrasshopper
p7471
aVpipefish
p7472
aVairedale
p7473
aVjacamar
p7474
aVstarfish
p7475
aVloir
p7476
aVcicada
p7477
aVfeeder
p7478
aVechidna
p7479
aVcoelacanth
p7480
aVtetrapod
p7481
aVpomfret
p7482
aVgnatcatcher
p7483
aVbloodworm
p7484
aVmacaque
p7485
aVworm
p7486
aVunderwing
p7487
aVshanny
p7488
aVkittiwake
p7489
aVtakin
p7490
aVctenophore
p7491
aVcockatoo
p7492
aVgrizzly
p7493
aVsculpin
p7494
aVaardvark
p7495
aVwombat
p7496
aVbeluga
p7497
aVechinoderm
p7498
aVchelonian
p7499
aVtern
p7500
aVpuffin
p7501
aVmegapode
p7502
aVschistosome
p7503
aVbutterfly
p7504
aVhornet
p7505
aVbroodmare
p7506
aVroebuck
p7507
aVwirehair
p7508
aVgroundhog
p7509
aVechinococcus
p7510
aVbobolink
p7511
aVagua
p7512
aVshovelhead
p7513
aVwoodworm
p7514
aVpeacock
p7515
aVwallaby
p7516
aVpheasant
p7517
aVhyrax
p7518
aVsurgeonfish
p7519
aVwoodcock
p7520
aVmoonfish
p7521
aVgreenbottle
p7522
aVbronco
p7523
aVguppy
p7524
aVcaracal
p7525
aVparakeet
p7526
aVdragonfly
p7527
aVgiraffe
p7528
aVcaterpillar
p7529
aVdabchick
p7530
aVormer
p7531
aVannelid
p7532
aVcodling
p7533
aVbellbird
p7534
aVjaeger
p7535
aVdinosaur
p7536
aVpekinese
p7537
aVherbivore
p7538
aVshrike
p7539
aVheifer
p7540
aVboatbill
p7541
aVzooplankton
p7542
aVgarganey
p7543
aVmargate
p7544
aVdormouse
p7545
aVbarracuda
p7546
aVcivet
p7547
aVruminant
p7548
aVgrubby
p7549
aVmurine
p7550
aVsapsucker
p7551
aVpoodle
p7552
aVbollworm
p7553
aVblackcock
p7554
aVpinto
p7555
aVburro
p7556
aVbotfly
p7557
aVscarab
p7558
aVortolan
p7559
aVcur
p7560
aVwagtail
p7561
aVcrinoid
p7562
aVtapir
p7563
aVvole
p7564
aVtheropod
p7565
aVargentine
p7566
aVcorncrake
p7567
aVamphipod
p7568
aVaddax
p7569
aVkitten
p7570
aVskua
p7571
aVbushtit
p7572
aVfetus
p7573
aVcrocodile
p7574
aVinsectivore
p7575
aVkoala
p7576
aVpithecanthropus
p7577
aVthrips
p7578
aVcaribou
p7579
aVhairstreak
p7580
aVcapybara
p7581
aVgnat
p7582
aVkinglet
p7583
aVbiped
p7584
aVhound
p7585
aVmerganser
p7586
aVblenny
p7587
aVcochin
p7588
aVmastiff
p7589
aVmyriapod
p7590
aVbeef
p7591
aVnewt
p7592
aVlancelet
p7593
aVpomeranian
p7594
aVratite
p7595
aVwoodpecker
p7596
aVstickleback
p7597
aVsaiga
p7598
aVinsect
p7599
aVfriesian
p7600
aVlungfish
p7601
aVchacma
p7602
aVmayfly
p7603
aVbasenji
p7604
aVwhippoorwill
p7605
aVgerenuk
p7606
aVbat
p7607
aVkingbird
p7608
aVturnstone
p7609
aVgorilla
p7610
aVappenzeller
p7611
aVbanteng
p7612
aVsaurischian
p7613
aVern
p7614
as.